
charger.elf:     file format elf32-avr

Sections:
Idx Name          Size      VMA       LMA       File off  Algn
  0 .text         00004118  00000000  00000000  00000094  2**1
                  CONTENTS, ALLOC, LOAD, READONLY, CODE
  1 .data         000006c4  00800060  00004118  000041ac  2**0
                  CONTENTS, ALLOC, LOAD, DATA
  2 .bss          000000c2  00800724  00800724  00004870  2**0
                  ALLOC
  3 .noinit       00000000  008007e6  008007e6  00004870  2**0
                  CONTENTS
  4 .eeprom       00000000  00810000  00810000  00004870  2**0
                  CONTENTS
  5 .stab         0000036c  00000000  00000000  00004870  2**2
                  CONTENTS, READONLY, DEBUGGING
  6 .stabstr      00000084  00000000  00000000  00004bdc  2**0
                  CONTENTS, READONLY, DEBUGGING
  7 .debug_aranges 0000021c  00000000  00000000  00004c60  2**0
                  CONTENTS, READONLY, DEBUGGING
  8 .debug_pubnames 000006cb  00000000  00000000  00004e7c  2**0
                  CONTENTS, READONLY, DEBUGGING
  9 .debug_info   0000be3f  00000000  00000000  00005547  2**0
                  CONTENTS, READONLY, DEBUGGING
 10 .debug_abbrev 00001856  00000000  00000000  00011386  2**0
                  CONTENTS, READONLY, DEBUGGING
 11 .debug_line   00003c3e  00000000  00000000  00012bdc  2**0
                  CONTENTS, READONLY, DEBUGGING
 12 .debug_str    000008a4  00000000  00000000  0001681a  2**0
                  CONTENTS, READONLY, DEBUGGING
Disassembly of section .text:

00000000 <__vectors>:
       0:	0c 94 3e 00 	jmp	0x7c <__init>
       4:	0c 94 59 00 	jmp	0xb2 <__bad_interrupt>
       8:	0c 94 59 00 	jmp	0xb2 <__bad_interrupt>
       c:	0c 94 59 00 	jmp	0xb2 <__bad_interrupt>
      10:	0c 94 59 00 	jmp	0xb2 <__bad_interrupt>
      14:	0c 94 59 00 	jmp	0xb2 <__bad_interrupt>
      18:	0c 94 59 00 	jmp	0xb2 <__bad_interrupt>
      1c:	0c 94 59 00 	jmp	0xb2 <__bad_interrupt>
      20:	0c 94 59 00 	jmp	0xb2 <__bad_interrupt>
      24:	0c 94 59 00 	jmp	0xb2 <__bad_interrupt>
      28:	0c 94 59 00 	jmp	0xb2 <__bad_interrupt>
      2c:	0c 94 19 02 	jmp	0x432 <__vector_11>
      30:	0c 94 59 00 	jmp	0xb2 <__bad_interrupt>
      34:	0c 94 c3 02 	jmp	0x586 <__vector_13>
      38:	0c 94 59 00 	jmp	0xb2 <__bad_interrupt>
      3c:	0c 94 59 00 	jmp	0xb2 <__bad_interrupt>
      40:	0c 94 59 00 	jmp	0xb2 <__bad_interrupt>
      44:	0c 94 59 00 	jmp	0xb2 <__bad_interrupt>
      48:	0c 94 59 00 	jmp	0xb2 <__bad_interrupt>
      4c:	0c 94 59 00 	jmp	0xb2 <__bad_interrupt>
      50:	0c 94 59 00 	jmp	0xb2 <__bad_interrupt>

00000054 <__ctors_end>:
      54:	cf 13       	cpse	r28, r31
      56:	a2 13       	cpse	r26, r18
      58:	fe 13       	cpse	r31, r30
      5a:	30 14       	cp	r3, r0
      5c:	9a 14       	cp	r9, r10
      5e:	b0 14       	cp	r11, r0
      60:	eb 14       	cp	r14, r11
      62:	19 15       	cp	r17, r9
      64:	e8 16       	cp	r14, r24
      66:	50 15       	cp	r21, r0
      68:	c3 14       	cp	r12, r3
      6a:	72 15       	cp	r23, r2
      6c:	cc 14       	cp	r12, r12
      6e:	87 15       	cp	r24, r7
      70:	c3 15       	cp	r28, r3
      72:	24 16       	cp	r2, r20
      74:	00 16       	cp	r0, r16
      76:	4d 16       	cp	r4, r29
      78:	7c 16       	cp	r7, r28
      7a:	b6 16       	cp	r11, r22

0000007c <__init>:
      7c:	11 24       	eor	r1, r1
      7e:	1f be       	out	0x3f, r1	; 63
      80:	cf e5       	ldi	r28, 0x5F	; 95
      82:	d8 e0       	ldi	r29, 0x08	; 8
      84:	de bf       	out	0x3e, r29	; 62
      86:	cd bf       	out	0x3d, r28	; 61

00000088 <__do_copy_data>:
      88:	17 e0       	ldi	r17, 0x07	; 7
      8a:	a0 e6       	ldi	r26, 0x60	; 96
      8c:	b0 e0       	ldi	r27, 0x00	; 0
      8e:	e8 e1       	ldi	r30, 0x18	; 24
      90:	f1 e4       	ldi	r31, 0x41	; 65
      92:	02 c0       	rjmp	.+4      	; 0x98 <.do_copy_data_start>

00000094 <.do_copy_data_loop>:
      94:	05 90       	lpm	r0, Z+
      96:	0d 92       	st	X+, r0

00000098 <.do_copy_data_start>:
      98:	a4 32       	cpi	r26, 0x24	; 36
      9a:	b1 07       	cpc	r27, r17
      9c:	d9 f7       	brne	.-10     	; 0x94 <.do_copy_data_loop>

0000009e <__do_clear_bss>:
      9e:	17 e0       	ldi	r17, 0x07	; 7
      a0:	a4 e2       	ldi	r26, 0x24	; 36
      a2:	b7 e0       	ldi	r27, 0x07	; 7
      a4:	01 c0       	rjmp	.+2      	; 0xa8 <.do_clear_bss_start>

000000a6 <.do_clear_bss_loop>:
      a6:	1d 92       	st	X+, r1

000000a8 <.do_clear_bss_start>:
      a8:	a6 3e       	cpi	r26, 0xE6	; 230
      aa:	b1 07       	cpc	r27, r17
      ac:	e1 f7       	brne	.-8      	; 0xa6 <.do_clear_bss_loop>
      ae:	0c 94 6b 03 	jmp	0x6d6 <main>

000000b2 <__bad_interrupt>:
      b2:	0c 94 00 00 	jmp	0x0 <__vectors>

000000b6 <Battery_Set_Save>:
//-----------------------------------------------------------------------------
// Battery Set Save Rountine
//-----------------------------------------------------------------------------
char Battery_Set_Save ( PSTMSG p )
{
      b6:	cf 93       	push	r28
      b8:	df 93       	push	r29
      ba:	ec 01       	movw	r28, r24
	LCD_Update ( COL1, ROW1, "LiPo    Charge" );
      bc:	40 e6       	ldi	r20, 0x60	; 96
      be:	50 e0       	ldi	r21, 0x00	; 0
      c0:	60 e0       	ldi	r22, 0x00	; 0
      c2:	86 2f       	mov	r24, r22
      c4:	0e 94 4a 03 	call	0x694 <LCD_Update>
	LCD_Update ( COL1, ROW2, "10A  11.1V(3S)" );
      c8:	4f e6       	ldi	r20, 0x6F	; 111
      ca:	50 e0       	ldi	r21, 0x00	; 0
      cc:	61 e0       	ldi	r22, 0x01	; 1
      ce:	80 e0       	ldi	r24, 0x00	; 0
      d0:	0e 94 4a 03 	call	0x694 <LCD_Update>
	switch ( p->Menu.Num )
      d4:	8e 81       	ldd	r24, Y+6	; 0x06
      d6:	99 27       	eor	r25, r25
      d8:	81 30       	cpi	r24, 0x01	; 1
      da:	91 05       	cpc	r25, r1
      dc:	19 f0       	breq	.+6      	; 0xe4 <Battery_Set_Save+0x2e>
      de:	02 97       	sbiw	r24, 0x02	; 2
      e0:	21 f0       	breq	.+8      	; 0xea <Battery_Set_Save+0x34>
      e2:	0f c0       	rjmp	.+30     	; 0x102 <Battery_Set_Save+0x4c>
	{
		case 1:
			LCD_Update ( COL4, ROW1, "Saving No." );
      e4:	4e e7       	ldi	r20, 0x7E	; 126
      e6:	50 e0       	ldi	r21, 0x00	; 0
      e8:	02 c0       	rjmp	.+4      	; 0xee <Battery_Set_Save+0x38>
			LCD_Update ( COL1, ROW2, "LiPo06CHG01" );
			break;
						
		case 2:
			LCD_Update ( COL4, ROW1, "Re Bat Setting" );
      ea:	49 e8       	ldi	r20, 0x89	; 137
      ec:	50 e0       	ldi	r21, 0x00	; 0
      ee:	60 e0       	ldi	r22, 0x00	; 0
      f0:	83 e0       	ldi	r24, 0x03	; 3
      f2:	0e 94 4a 03 	call	0x694 <LCD_Update>
			LCD_Update ( COL1, ROW2, "LiPo06CHG01" );
      f6:	48 e9       	ldi	r20, 0x98	; 152
      f8:	50 e0       	ldi	r21, 0x00	; 0
      fa:	61 e0       	ldi	r22, 0x01	; 1
      fc:	80 e0       	ldi	r24, 0x00	; 0
      fe:	0e 94 4a 03 	call	0x694 <LCD_Update>
			break;

		default:
			break;
	}

	switch ( p->Menu.Num )
     102:	8e 81       	ldd	r24, Y+6	; 0x06
     104:	99 27       	eor	r25, r25
     106:	82 30       	cpi	r24, 0x02	; 2
     108:	91 05       	cpc	r25, r1
     10a:	a9 f0       	breq	.+42     	; 0x136 <Battery_Set_Save+0x80>
     10c:	83 30       	cpi	r24, 0x03	; 3
     10e:	91 05       	cpc	r25, r1
     110:	1c f4       	brge	.+6      	; 0x118 <Battery_Set_Save+0x62>
     112:	01 97       	sbiw	r24, 0x01	; 1
     114:	21 f0       	breq	.+8      	; 0x11e <Battery_Set_Save+0x68>
     116:	2d c0       	rjmp	.+90     	; 0x172 <Battery_Set_Save+0xbc>
     118:	03 97       	sbiw	r24, 0x03	; 3
     11a:	e1 f0       	breq	.+56     	; 0x154 <Battery_Set_Save+0x9e>
     11c:	2a c0       	rjmp	.+84     	; 0x172 <Battery_Set_Save+0xbc>
	{
		case 1:
			LCD_Update ( COL1, ROW1, "Wait please..." );
     11e:	44 ea       	ldi	r20, 0xA4	; 164
     120:	50 e0       	ldi	r21, 0x00	; 0
     122:	60 e0       	ldi	r22, 0x00	; 0
     124:	86 2f       	mov	r24, r22
     126:	0e 94 4a 03 	call	0x694 <LCD_Update>
			if ( Battery_Set_Save ( p ) == SUCCESS )
     12a:	ce 01       	movw	r24, r28
     12c:	0e 94 5b 00 	call	0xb6 <Battery_Set_Save>
     130:	81 30       	cpi	r24, 0x01	; 1
     132:	f9 f0       	breq	.+62     	; 0x172 <Battery_Set_Save+0xbc>
     134:	0c c0       	rjmp	.+24     	; 0x14e <Battery_Set_Save+0x98>
			{
				//memcset ( msg.Menu.Num, 0, sizeof (msg.Menu.Num));
				//p->Menu.ID |= (1<<4) & MENU_LAYER;
				//p->Menu.ID |= 2 & MENU_NUM;											
			}
			else ++p->Menu.Num;
			break;

		case 2:
			LCD_Update ( COL1, ROW1, "Memory limit" ); 
     136:	43 eb       	ldi	r20, 0xB3	; 179
     138:	50 e0       	ldi	r21, 0x00	; 0
     13a:	60 e0       	ldi	r22, 0x00	; 0
     13c:	86 2f       	mov	r24, r22
     13e:	0e 94 4a 03 	call	0x694 <LCD_Update>
			LCD_Update ( COL1, ROW2, "CONFIRM(ENTER)" );
     142:	40 ec       	ldi	r20, 0xC0	; 192
     144:	50 e0       	ldi	r21, 0x00	; 0
     146:	61 e0       	ldi	r22, 0x01	; 1
     148:	80 e0       	ldi	r24, 0x00	; 0
     14a:	0e 94 4a 03 	call	0x694 <LCD_Update>
			++p->Menu.Num;
     14e:	8e 81       	ldd	r24, Y+6	; 0x06
     150:	8f 5f       	subi	r24, 0xFF	; 255
     152:	0e c0       	rjmp	.+28     	; 0x170 <Battery_Set_Save+0xba>
			break;

		case 3:
			LCD_Update ( COL1, ROW1, "Memory limit" ); 
     154:	43 eb       	ldi	r20, 0xB3	; 179
     156:	50 e0       	ldi	r21, 0x00	; 0
     158:	60 e0       	ldi	r22, 0x00	; 0
     15a:	86 2f       	mov	r24, r22
     15c:	0e 94 4a 03 	call	0x694 <LCD_Update>
			LCD_Update ( COL1, ROW2, "CANCEL(STOP)" );
     160:	4f ec       	ldi	r20, 0xCF	; 207
     162:	50 e0       	ldi	r21, 0x00	; 0
     164:	61 e0       	ldi	r22, 0x01	; 1
     166:	80 e0       	ldi	r24, 0x00	; 0
     168:	0e 94 4a 03 	call	0x694 <LCD_Update>
			--p->Menu.Num;
     16c:	8e 81       	ldd	r24, Y+6	; 0x06
     16e:	81 50       	subi	r24, 0x01	; 1
     170:	8e 83       	std	Y+6, r24	; 0x06
			break;

		default:
			break;
	}
	return SUCCESS;
}
     172:	81 e0       	ldi	r24, 0x01	; 1
     174:	90 e0       	ldi	r25, 0x00	; 0
     176:	df 91       	pop	r29
     178:	cf 91       	pop	r28
     17a:	08 95       	ret

0000017c <Battery_Set_Load>:
//-----------------------------------------------------------------------------
// Battery Set Load Rountine
//-----------------------------------------------------------------------------
char Battery_Set_Load ( PSTMSG p )
{
	LCD_Update ( COL1, ROW1, "Bat Saving No." );
     17c:	4c ed       	ldi	r20, 0xDC	; 220
     17e:	50 e0       	ldi	r21, 0x00	; 0
     180:	60 e0       	ldi	r22, 0x00	; 0
     182:	86 2f       	mov	r24, r22
     184:	0e 94 4a 03 	call	0x694 <LCD_Update>
	//Battery_Set_String ( str );
	//LCD_Update ( COL1, ROW2, str );
	LCD_Update ( COL10, ROW2, "" );
     188:	4b ee       	ldi	r20, 0xEB	; 235
     18a:	50 e0       	ldi	r21, 0x00	; 0
     18c:	61 e0       	ldi	r22, 0x01	; 1
     18e:	89 e0       	ldi	r24, 0x09	; 9
     190:	0e 94 4a 03 	call	0x694 <LCD_Update>

	return SUCCESS;
}
     194:	81 e0       	ldi	r24, 0x01	; 1
     196:	90 e0       	ldi	r25, 0x00	; 0
     198:	08 95       	ret

0000019a <Comm_Initial>:
//-----------------------------------------------------------------------------
// Communication Initial Rountine
//-----------------------------------------------------------------------------
void Comm_Initial ( void )
{
     19a:	08 95       	ret

0000019c <Comm_Receive>:
	#ifdef COMM_UART
	Uart0_Initial ();
	#endif
}
//-----------------------------------------------------------------------------
// Communication Receive Rountine
//-----------------------------------------------------------------------------
void Comm_Receive ( char * buf, char n, char timout )
{
     19c:	08 95       	ret

0000019e <Comm_Send>:
	#ifdef COMM_UART
	return rtn = Uart0_Receive ( buf, n, timout );
	#endif
}
//-----------------------------------------------------------------------------
// Communication Send Rountine
//-----------------------------------------------------------------------------
void Comm_Send ( char * buf, char n, char timout )
{
     19e:	08 95       	ret

000001a0 <ADC_Initial>:
// ADC Initial Rountine
//-----------------------------------------------------------------------------
void ADC_Initial ( void )
{
	ADC_Set(ADC_Channel0);
     1a0:	80 ec       	ldi	r24, 0xC0	; 192
     1a2:	87 b9       	out	0x07, r24	; 7
	ADC_Auto_Trigger(ADC_Free_Running_Mode);
     1a4:	80 b7       	in	r24, 0x30	; 48
     1a6:	80 bf       	out	0x30, r24	; 48
	ADC_Continue;
     1a8:	83 ec       	ldi	r24, 0xC3	; 195
     1aa:	86 b9       	out	0x06, r24	; 6
     1ac:	08 95       	ret

000001ae <ADC_Polling>:
}
//-----------------------------------------------------------------------------
// ADC Conversion Complete Polling Rountine
//-----------------------------------------------------------------------------
void ADC_Polling ( PSTADC p, unsigned char direct )
{
     1ae:	1f 93       	push	r17
     1b0:	cf 93       	push	r28
     1b2:	df 93       	push	r29
     1b4:	ec 01       	movw	r28, r24
	unsigned char ch = 0;
     1b6:	30 e0       	ldi	r19, 0x00	; 0
	unsigned char n = p->n;
     1b8:	2a 85       	ldd	r18, Y+10	; 0x0a
	unsigned char Channel = p->Channel;
     1ba:	1d 8d       	ldd	r17, Y+29	; 0x1d
	unsigned int  Volt;

	if ( ADC_Is_Complete == FALSE ) return;
     1bc:	34 9b       	sbis	0x06, 4	; 6
     1be:	34 c0       	rjmp	.+104    	; 0x228 <ADC_Polling+0x7a>
	ADC_Clear_Complete;
     1c0:	34 9a       	sbi	0x06, 4	; 6
	if ( n++ == ADC_FIRST_CONVERSION ) return;
     1c2:	2f 5f       	subi	r18, 0xFF	; 255
     1c4:	21 30       	cpi	r18, 0x01	; 1
     1c6:	81 f1       	breq	.+96     	; 0x228 <ADC_Polling+0x7a>
	p->Buf[n-1] = ADC_WORD_VAlUE;
     1c8:	fc 01       	movw	r30, r24
     1ca:	e2 0f       	add	r30, r18
     1cc:	f1 1d       	adc	r31, r1
     1ce:	31 97       	sbiw	r30, 0x01	; 1
     1d0:	84 b1       	in	r24, 0x04	; 4
     1d2:	95 b1       	in	r25, 0x05	; 5
     1d4:	80 83       	st	Z, r24
	if ( n < ADC_BUF_LEN ) return;
     1d6:	2a 30       	cpi	r18, 0x0A	; 10
     1d8:	38 f1       	brcs	.+78     	; 0x228 <ADC_Polling+0x7a>
	n = 0;

	if ( Channel == ADC_Channel0 )
     1da:	11 23       	and	r17, r17
     1dc:	31 f4       	brne	.+12     	; 0x1ea <ADC_Polling+0x3c>
		if ( direct == POSITIVE ) ch = ADC_DIFF1_ADC10;
     1de:	61 30       	cpi	r22, 0x01	; 1
     1e0:	11 f4       	brne	.+4      	; 0x1e6 <ADC_Polling+0x38>
     1e2:	39 e0       	ldi	r19, 0x09	; 9
     1e4:	06 c0       	rjmp	.+12     	; 0x1f2 <ADC_Polling+0x44>
		else ch = ADC_DIFF3_ADC01;
     1e6:	30 e1       	ldi	r19, 0x10	; 16
     1e8:	04 c0       	rjmp	.+8      	; 0x1f2 <ADC_Polling+0x44>
	else if ( Channel == ADC_CHANNEL_NUM - 1 ) ch = ADC_Channel0;
     1ea:	11 31       	cpi	r17, 0x11	; 17
     1ec:	11 f0       	breq	.+4      	; 0x1f2 <ADC_Polling+0x44>
	else ch = Channel + ADC_DIFF_CHANNEL;
     1ee:	31 2f       	mov	r19, r17
     1f0:	3e 5f       	subi	r19, 0xFE	; 254
	ADC_Set ( ch );
     1f2:	30 6c       	ori	r19, 0xC0	; 192
     1f4:	37 b9       	out	0x07, r19	; 7

	Volt = Data_Average ( p->Buf, ADC_BUF_LEN );
     1f6:	6a e0       	ldi	r22, 0x0A	; 10
     1f8:	ce 01       	movw	r24, r28
     1fa:	0e 94 01 06 	call	0xc02 <Data_Average>
     1fe:	99 27       	eor	r25, r25
	p->Volt[Channel] = Volt / 4;
     200:	fe 01       	movw	r30, r28
     202:	e1 0f       	add	r30, r17
     204:	f1 1d       	adc	r31, r1
     206:	9c 01       	movw	r18, r24
     208:	36 95       	lsr	r19
     20a:	27 95       	ror	r18
     20c:	36 95       	lsr	r19
     20e:	27 95       	ror	r18
     210:	23 87       	std	Z+11, r18	; 0x0b
	if ( Volt & 0x0002 ) p->Volt[Channel]++;
     212:	81 ff       	sbrs	r24, 1
     214:	03 c0       	rjmp	.+6      	; 0x21c <ADC_Polling+0x6e>
     216:	82 2f       	mov	r24, r18
     218:	8f 5f       	subi	r24, 0xFF	; 255
     21a:	83 87       	std	Z+11, r24	; 0x0b
	if ( ++Channel == ADC_CHANNEL_NUM ) Channel = ADC_Channel0;
     21c:	1f 5f       	subi	r17, 0xFF	; 255
     21e:	12 31       	cpi	r17, 0x12	; 18
     220:	09 f4       	brne	.+2      	; 0x224 <ADC_Polling+0x76>
     222:	10 e0       	ldi	r17, 0x00	; 0

	p->Channel = Channel;
     224:	1d 8f       	std	Y+29, r17	; 0x1d
	p->n = n;
     226:	1a 86       	std	Y+10, r1	; 0x0a
     228:	df 91       	pop	r29
     22a:	cf 91       	pop	r28
     22c:	1f 91       	pop	r17
     22e:	08 95       	ret

00000230 <DBus_Initial>:
// DBus Initial Rountine
//-----------------------------------------------------------------------------
void DBus_Initial ( void )
{
	DBus_DisEnable;
     230:	c2 98       	cbi	0x18, 2	; 24
	DBus_Ctrl_Output;
     232:	87 b3       	in	r24, 0x17	; 23
     234:	85 60       	ori	r24, 0x05	; 5
     236:	87 bb       	out	0x17, r24	; 23
	DBus_Output;
     238:	88 b3       	in	r24, 0x18	; 24
     23a:	80 6f       	ori	r24, 0xF0	; 240
     23c:	88 bb       	out	0x18, r24	; 24
     23e:	87 b3       	in	r24, 0x17	; 23
     240:	80 6f       	ori	r24, 0xF0	; 240
     242:	87 bb       	out	0x17, r24	; 23
     244:	08 95       	ret

00000246 <DBus_Write_Enable>:
}
//-----------------------------------------------------------------------------
// DBus Write Enable Rountine
//-----------------------------------------------------------------------------
void DBus_Write_Enable ( void )
{
	DBus_Enable;
     246:	c2 9a       	sbi	0x18, 2	; 24
	Delay ( LCD_EN_SPACE_TIME );
     248:	64 e1       	ldi	r22, 0x14	; 20
     24a:	70 e0       	ldi	r23, 0x00	; 0
     24c:	80 e0       	ldi	r24, 0x00	; 0
     24e:	90 e0       	ldi	r25, 0x00	; 0
     250:	0e 94 cf 01 	call	0x39e <Delay>
	DBus_DisEnable;	
     254:	c2 98       	cbi	0x18, 2	; 24
	...
	DBus_Stable;	
     262:	08 95       	ret

00000264 <DBus_Write_4Bit>:
}
//-----------------------------------------------------------------------------
// DBus Write 4Bit Rountine
//-----------------------------------------------------------------------------
void DBus_Write_4Bit ( unsigned char dat )
{
	DBus_Load ( dat );
     264:	98 b3       	in	r25, 0x18	; 24
     266:	9f 70       	andi	r25, 0x0F	; 15
     268:	98 bb       	out	0x18, r25	; 24
     26a:	98 2f       	mov	r25, r24
     26c:	90 7f       	andi	r25, 0xF0	; 240
     26e:	88 b3       	in	r24, 0x18	; 24
     270:	89 2b       	or	r24, r25
     272:	88 bb       	out	0x18, r24	; 24
	DBus_Write_Enable ();
     274:	0e 94 23 01 	call	0x246 <DBus_Write_Enable>
     278:	08 95       	ret

0000027a <DBus_Write>:
}
//-----------------------------------------------------------------------------
// DBus Write Data or Instruct Rountine
//-----------------------------------------------------------------------------
void DBus_Write ( unsigned char flag, unsigned char byte )
{
     27a:	0f 93       	push	r16
     27c:	1f 93       	push	r17
     27e:	cf 93       	push	r28
     280:	df 93       	push	r29
     282:	18 2f       	mov	r17, r24
     284:	06 2f       	mov	r16, r22
	Delay ( LCD_WRITE_SPACE_TIME );
     286:	60 e9       	ldi	r22, 0x90	; 144
     288:	71 e0       	ldi	r23, 0x01	; 1
     28a:	80 e0       	ldi	r24, 0x00	; 0
     28c:	90 e0       	ldi	r25, 0x00	; 0
     28e:	0e 94 cf 01 	call	0x39e <Delay>
	if ( flag & DATA ) { DBus_Data; }
     292:	c1 2f       	mov	r28, r17
     294:	dd 27       	eor	r29, r29
     296:	c0 ff       	sbrs	r28, 0
     298:	02 c0       	rjmp	.+4      	; 0x29e <DBus_Write+0x24>
     29a:	c0 9a       	sbi	0x18, 0	; 24
     29c:	01 c0       	rjmp	.+2      	; 0x2a0 <DBus_Write+0x26>
	else 			   { DBus_Instruct; }
     29e:	c0 98       	cbi	0x18, 0	; 24
	DBus_Write_4Bit ( byte );
     2a0:	80 2f       	mov	r24, r16
     2a2:	0e 94 32 01 	call	0x264 <DBus_Write_4Bit>
	if (!( flag & BITS_4 )) DBus_Write_4Bit ( byte << 4 );
     2a6:	c1 fd       	sbrc	r28, 1
     2a8:	05 c0       	rjmp	.+10     	; 0x2b4 <DBus_Write+0x3a>
     2aa:	80 2f       	mov	r24, r16
     2ac:	82 95       	swap	r24
     2ae:	80 7f       	andi	r24, 0xF0	; 240
     2b0:	0e 94 32 01 	call	0x264 <DBus_Write_4Bit>
     2b4:	df 91       	pop	r29
     2b6:	cf 91       	pop	r28
     2b8:	1f 91       	pop	r17
     2ba:	0f 91       	pop	r16
     2bc:	08 95       	ret

000002be <Eeprom_Write>:
// Eeprom Write Rountine
//-----------------------------------------------------------------------------
void Eeprom_Write ( int Address, char Data )
{
	while (EECR & (1<<EEWE));
     2be:	e1 99       	sbic	0x1c, 1	; 28
     2c0:	fe cf       	rjmp	.-4      	; 0x2be <Eeprom_Write>
	while (SPMCR & (1<<SPMEN));
     2c2:	07 b6       	in	r0, 0x37	; 55
     2c4:	00 fc       	sbrc	r0, 0
     2c6:	fd cf       	rjmp	.-6      	; 0x2c2 <Eeprom_Write+0x4>
	CLI;
     2c8:	f8 94       	cli
	EEAR = Address;
     2ca:	9f bb       	out	0x1f, r25	; 31
     2cc:	8e bb       	out	0x1e, r24	; 30
	EEDR = Data;
     2ce:	6d bb       	out	0x1d, r22	; 29
	EECR |= (1<<EEMWE);
     2d0:	e2 9a       	sbi	0x1c, 2	; 28
	EECR |= (1<<EEWE);
     2d2:	e1 9a       	sbi	0x1c, 1	; 28
	SEI;
     2d4:	78 94       	sei
     2d6:	08 95       	ret

000002d8 <Eeprom_Read>:
}
//-----------------------------------------------------------------------------
// Eeprom Read Rountine
//-----------------------------------------------------------------------------
char Eeprom_Read ( int Address )
{
	char temp = 0;

	while (EECR & (1<<EEWE));
     2d8:	e1 99       	sbic	0x1c, 1	; 28
     2da:	fe cf       	rjmp	.-4      	; 0x2d8 <Eeprom_Read>
	while (SPMCR & (1<<SPMEN));
     2dc:	07 b6       	in	r0, 0x37	; 55
     2de:	00 fc       	sbrc	r0, 0
     2e0:	fd cf       	rjmp	.-6      	; 0x2dc <Eeprom_Read+0x4>
	CLI;
     2e2:	f8 94       	cli
	EEAR = Address;
     2e4:	9f bb       	out	0x1f, r25	; 31
     2e6:	8e bb       	out	0x1e, r24	; 30
	EECR |= (1<<EERE);
     2e8:	e0 9a       	sbi	0x1c, 0	; 28
	temp = EEDR;
     2ea:	8d b3       	in	r24, 0x1d	; 29
	SEI;
     2ec:	78 94       	sei
	return temp;
}
     2ee:	99 27       	eor	r25, r25
     2f0:	08 95       	ret

000002f2 <Get_Key_State>:
//-----------------------------------------------------------------------------
// Get Key Code Rountine
//-----------------------------------------------------------------------------
unsigned char Get_Key_State ( PSTKEY p )
{
     2f2:	fc 01       	movw	r30, r24
	unsigned char rtn = SUCCESS;
     2f4:	91 e0       	ldi	r25, 0x01	; 1
	unsigned char Current = KEY_PIN & KEY_MASK;
     2f6:	23 b3       	in	r18, 0x13	; 19
     2f8:	23 7c       	andi	r18, 0xC3	; 195

	if ( Current == p->State.Previous )
     2fa:	83 85       	ldd	r24, Z+11	; 0x0b
     2fc:	28 17       	cp	r18, r24
     2fe:	49 f4       	brne	.+18     	; 0x312 <Get_Key_State+0x20>
	{
		if ( ++p->State.Counter >= KEY_JITTER ) p->State.Counter = 0;
     300:	84 85       	ldd	r24, Z+12	; 0x0c
     302:	89 0f       	add	r24, r25
     304:	84 87       	std	Z+12, r24	; 0x0c
     306:	84 30       	cpi	r24, 0x04	; 4
     308:	10 f0       	brcs	.+4      	; 0x30e <Get_Key_State+0x1c>
     30a:	14 86       	std	Z+12, r1	; 0x0c
     30c:	05 c0       	rjmp	.+10     	; 0x318 <Get_Key_State+0x26>
		else rtn = FAILURE;
     30e:	90 e0       	ldi	r25, 0x00	; 0
     310:	03 c0       	rjmp	.+6      	; 0x318 <Get_Key_State+0x26>
	}
	else
	{
		p->State.Previous = Current;
     312:	23 87       	std	Z+11, r18	; 0x0b
		p->State.Counter = 0;
     314:	14 86       	std	Z+12, r1	; 0x0c
		rtn = FAILURE;
     316:	94 85       	ldd	r25, Z+12	; 0x0c
	}
	return rtn;
}
     318:	89 2f       	mov	r24, r25
     31a:	99 27       	eor	r25, r25
     31c:	08 95       	ret

0000031e <Get_Key_Code>:
//-----------------------------------------------------------------------------
// Get Key Operate Rountine
//-----------------------------------------------------------------------------
void Get_Key_Code ( PSTKEY p, unsigned char Beep )
{
     31e:	0f 93       	push	r16
     320:	1f 93       	push	r17
     322:	cf 93       	push	r28
     324:	df 93       	push	r29
     326:	ec 01       	movw	r28, r24
     328:	06 2f       	mov	r16, r22
	unsigned char Pressed;
	//unsigned char Released;
	unsigned char n = p->n;
     32a:	1a 85       	ldd	r17, Y+10	; 0x0a
	unsigned char Current  = 0;
	unsigned char Previous = 0;
	unsigned char Counter  = 0;
	unsigned char Beeper   = 0;

	if ( Beeper ) Beeper--;
	else BELL_Off;
     32c:	90 9a       	sbi	0x12, 0	; 18
	if ( !Get_Key_State ( p )) return;
     32e:	0e 94 79 01 	call	0x2f2 <Get_Key_State>
     332:	88 23       	and	r24, r24
     334:	79 f1       	breq	.+94     	; 0x394 <Get_Key_Code+0x76>
	Current  = p->State.Previous;
     336:	2b 85       	ldd	r18, Y+11	; 0x0b
	Previous = p->Code.Previous;
     338:	8d 85       	ldd	r24, Y+13	; 0x0d
	Counter  = p->Code.Counter;
     33a:	3e 85       	ldd	r19, Y+14	; 0x0e
	Beeper   = p->Code.Beeper;
     33c:	4f 85       	ldd	r20, Y+15	; 0x0f
	// Released = ( Current ^ Previous ) & Current;
	if (( Pressed = ( Current ^ Previous ) & ( ~Current )))
     33e:	92 2f       	mov	r25, r18
     340:	90 95       	com	r25
     342:	98 23       	and	r25, r24
     344:	31 f0       	breq	.+12     	; 0x352 <Get_Key_Code+0x34>
		if ( n < KEY_FIFO_LENGTH ) p->FIFO[n] = Pressed;
     346:	1a 30       	cpi	r17, 0x0A	; 10
     348:	20 f4       	brcc	.+8      	; 0x352 <Get_Key_Code+0x34>
     34a:	fe 01       	movw	r30, r28
     34c:	e1 0f       	add	r30, r17
     34e:	f1 1d       	adc	r31, r1
     350:	90 83       	st	Z, r25
	if (( Current != KEY_MASK ) && ( Current == Previous ))
     352:	23 3c       	cpi	r18, 0xC3	; 195
     354:	91 f0       	breq	.+36     	; 0x37a <Get_Key_Code+0x5c>
     356:	28 17       	cp	r18, r24
     358:	81 f4       	brne	.+32     	; 0x37a <Get_Key_Code+0x5c>
	{
		if ( Counter < KEY_CONSTANT ) ++Counter;
     35a:	3a 30       	cpi	r19, 0x0A	; 10
     35c:	10 f4       	brcc	.+4      	; 0x362 <Get_Key_Code+0x44>
     35e:	3f 5f       	subi	r19, 0xFF	; 255
     360:	0d c0       	rjmp	.+26     	; 0x37c <Get_Key_Code+0x5e>
		else if (( Counter == KEY_CONSTANT )&&( p->FIFO[n] == Current )) 
     362:	3a 30       	cpi	r19, 0x0A	; 10
     364:	59 f4       	brne	.+22     	; 0x37c <Get_Key_Code+0x5e>
     366:	fe 01       	movw	r30, r28
     368:	e1 0f       	add	r30, r17
     36a:	f1 1d       	adc	r31, r1
     36c:	80 81       	ld	r24, Z
     36e:	82 17       	cp	r24, r18
     370:	29 f4       	brne	.+10     	; 0x37c <Get_Key_Code+0x5e>
			p->FIFO[n] |= 1<<KEY_CON;
     372:	82 2f       	mov	r24, r18
     374:	80 61       	ori	r24, 0x10	; 16
     376:	80 83       	st	Z, r24
     378:	01 c0       	rjmp	.+2      	; 0x37c <Get_Key_Code+0x5e>
		else;
	}
	else Counter = 0;
     37a:	30 e0       	ldi	r19, 0x00	; 0
	if ( Pressed && ( Beep == OPEN ))
     37c:	99 23       	and	r25, r25
     37e:	21 f0       	breq	.+8      	; 0x388 <Get_Key_Code+0x6a>
     380:	01 30       	cpi	r16, 0x01	; 1
     382:	11 f4       	brne	.+4      	; 0x388 <Get_Key_Code+0x6a>
	{
		Beeper = KEY_BEEPER;
     384:	42 e0       	ldi	r20, 0x02	; 2
		BELL_On;
     386:	90 98       	cbi	0x12, 0	; 18
	}
	if ( Pressed ) n++;
     388:	91 11       	cpse	r25, r1
     38a:	1f 5f       	subi	r17, 0xFF	; 255
	p->n = n;
     38c:	1a 87       	std	Y+10, r17	; 0x0a
	p->Code.Previous = Current;
     38e:	2d 87       	std	Y+13, r18	; 0x0d
	p->Code.Counter  = Counter;
     390:	3e 87       	std	Y+14, r19	; 0x0e
	p->Code.Beeper   = Beeper;
     392:	4f 87       	std	Y+15, r20	; 0x0f
     394:	df 91       	pop	r29
     396:	cf 91       	pop	r28
     398:	1f 91       	pop	r17
     39a:	0f 91       	pop	r16
     39c:	08 95       	ret

0000039e <Delay>:
// Delay Routine
//-----------------------------------------------------------------------------
void Delay ( long t )
{
	while ( t-- )  if (( t & 0x0ff ) == 0x00 ) Clear_Dog;
     39e:	61 50       	subi	r22, 0x01	; 1
     3a0:	71 09       	sbc	r23, r1
     3a2:	81 09       	sbc	r24, r1
     3a4:	91 09       	sbc	r25, r1
     3a6:	d8 f7       	brcc	.-10     	; 0x39e <Delay>
     3a8:	08 95       	ret

000003aa <PWM_Initial>:
// Initial Rountine
//-----------------------------------------------------------------------------
void PWM_Initial ( void )
{
    Timer1_Count_Load ( PWM_STOP );
     3aa:	8a e0       	ldi	r24, 0x0A	; 10
     3ac:	91 e0       	ldi	r25, 0x01	; 1
     3ae:	9d bd       	out	0x2d, r25	; 45
     3b0:	8c bd       	out	0x2c, r24	; 44
    Timer1_OutCompA_Load ( PWM_FREQUENCE );
     3b2:	9b bd       	out	0x2b, r25	; 43
     3b4:	8a bd       	out	0x2a, r24	; 42
    Timer1_OutCompB_Load ( PWM_FREQUENCE );
     3b6:	99 bd       	out	0x29, r25	; 41
     3b8:	88 bd       	out	0x28, r24	; 40
	Timer1_Set ( PWM_FAST_Mode15 );
     3ba:	8f b5       	in	r24, 0x2f	; 47
     3bc:	83 60       	ori	r24, 0x03	; 3
     3be:	8f bd       	out	0x2f, r24	; 47
     3c0:	8e b5       	in	r24, 0x2e	; 46
     3c2:	88 61       	ori	r24, 0x18	; 24
     3c4:	8e bd       	out	0x2e, r24	; 46
	Timer1_Clock ( No_Clock_Source );                      
     3c6:	8e b5       	in	r24, 0x2e	; 46
     3c8:	8e bd       	out	0x2e, r24	; 46
     3ca:	08 95       	ret

000003cc <PWM_Update>:
}
//-----------------------------------------------------------------------------
// PWM Update Rountine
//-----------------------------------------------------------------------------
void PWM_Update ( unsigned int t )
{
     3cc:	9c 01       	movw	r18, r24
	if ( t < PWM_VOLT_MAX || t > PWM_FREQUENCE ) return;
     3ce:	84 56       	subi	r24, 0x64	; 100
     3d0:	90 40       	sbci	r25, 0x00	; 0
     3d2:	87 3a       	cpi	r24, 0xA7	; 167
     3d4:	91 05       	cpc	r25, r1
     3d6:	28 f4       	brcc	.+10     	; 0x3e2 <PWM_Update+0x16>
	//while ( !TIMER1_OVERFLOW );
	Timer1_Clear_Overflow;
     3d8:	88 b7       	in	r24, 0x38	; 56
     3da:	84 60       	ori	r24, 0x04	; 4
     3dc:	88 bf       	out	0x38, r24	; 56
	Timer1_Count_Load ( t );
     3de:	3d bd       	out	0x2d, r19	; 45
     3e0:	2c bd       	out	0x2c, r18	; 44
     3e2:	08 95       	ret

000003e4 <PWM_Control>:
}
//-----------------------------------------------------------------------------
// PWM Control Rountine
//-----------------------------------------------------------------------------
void PWM_Control ( PSTPWM p, unsigned int End_Out, unsigned char Step )
{
     3e4:	fc 01       	movw	r30, r24
	unsigned int t = 0;

	p->End_Out = End_Out;
     3e6:	75 83       	std	Z+5, r23	; 0x05
     3e8:	64 83       	std	Z+4, r22	; 0x04
	if ( End_Out == 0 )	t = PWM_STOP;
     3ea:	61 15       	cp	r22, r1
     3ec:	71 05       	cpc	r23, r1
     3ee:	19 f4       	brne	.+6      	; 0x3f6 <PWM_Control+0x12>
     3f0:	8a e0       	ldi	r24, 0x0A	; 10
     3f2:	91 e0       	ldi	r25, 0x01	; 1
     3f4:	14 c0       	rjmp	.+40     	; 0x41e <PWM_Control+0x3a>
	else if ( End_Out > p->Cur_Out ) t += PWM_STEP_MIN * Step;
     3f6:	82 81       	ldd	r24, Z+2	; 0x02
     3f8:	93 81       	ldd	r25, Z+3	; 0x03
     3fa:	86 17       	cp	r24, r22
     3fc:	97 07       	cpc	r25, r23
     3fe:	28 f4       	brcc	.+10     	; 0x40a <PWM_Control+0x26>
     400:	8a e0       	ldi	r24, 0x0A	; 10
     402:	48 9f       	mul	r20, r24
     404:	c0 01       	movw	r24, r0
     406:	11 24       	eor	r1, r1
     408:	0a c0       	rjmp	.+20     	; 0x41e <PWM_Control+0x3a>
	else if ( End_Out < p->Cur_Out ) t -= PWM_STEP_MIN * Step;
     40a:	68 17       	cp	r22, r24
     40c:	79 07       	cpc	r23, r25
     40e:	48 f4       	brcc	.+18     	; 0x422 <PWM_Control+0x3e>
     410:	8a e0       	ldi	r24, 0x0A	; 10
     412:	48 9f       	mul	r20, r24
     414:	c0 01       	movw	r24, r0
     416:	11 24       	eor	r1, r1
     418:	90 95       	com	r25
     41a:	81 95       	neg	r24
     41c:	9f 4f       	sbci	r25, 0xFF	; 255
	else return;
	PWM_Update ( t );
     41e:	0e 94 e6 01 	call	0x3cc <PWM_Update>
     422:	08 95       	ret

00000424 <Timer0_Initial>:
// Initial Rountine
//-----------------------------------------------------------------------------
void Timer0_Initial ( void )
{
   TCNT0 = TIMER0_VALUE;
     424:	86 e0       	ldi	r24, 0x06	; 6
     426:	82 bf       	out	0x32, r24	; 50
   TCCR0 = ((1<<CS01)|(1<<CS00));
     428:	83 e0       	ldi	r24, 0x03	; 3
     42a:	83 bf       	out	0x33, r24	; 51
   TIMSK = (1<<TOIE0);
     42c:	81 e0       	ldi	r24, 0x01	; 1
     42e:	89 bf       	out	0x39, r24	; 57
     430:	08 95       	ret

00000432 <__vector_11>:
}
//-----------------------------------------------------------------------------
// Timer0 ISR Rountine
//-----------------------------------------------------------------------------
Timer0_ISR ( TIMER0_OVF )
{
     432:	1f 92       	push	r1
     434:	0f 92       	push	r0
     436:	0f b6       	in	r0, 0x3f	; 63
     438:	0f 92       	push	r0
     43a:	11 24       	eor	r1, r1
     43c:	2f 93       	push	r18
     43e:	8f 93       	push	r24
     440:	9f 93       	push	r25
    static char Task0 = TASK0_COUNT;
    static char Task1 = TASK1_COUNT;
    static char Task2 = TASK2_COUNT;
    static char Task3 = TASK3_COUNT;
    static char Task4 = TASK4_COUNT;
    static char Task5 = TASK5_COUNT;
    static char Task6 = TASK5_COUNT;

    TCNT0 = TIMER0_VALUE;
     442:	86 e0       	ldi	r24, 0x06	; 6
     444:	82 bf       	out	0x32, r24	; 50
	if ( msg.Count_ms ) msg.Count_ms--;
     446:	80 91 b8 07 	lds	r24, 0x07B8
     44a:	88 23       	and	r24, r24
     44c:	29 f0       	breq	.+10     	; 0x458 <__vector_11+0x26>
     44e:	80 91 b8 07 	lds	r24, 0x07B8
     452:	81 50       	subi	r24, 0x01	; 1
     454:	80 93 b8 07 	sts	0x07B8, r24
	if ( Task0 ) Task0--;
     458:	80 91 ec 00 	lds	r24, 0x00EC
     45c:	88 23       	and	r24, r24
     45e:	21 f0       	breq	.+8      	; 0x468 <__vector_11+0x36>
     460:	81 50       	subi	r24, 0x01	; 1
     462:	80 93 ec 00 	sts	0x00EC, r24
     466:	66 c0       	rjmp	.+204    	; 0x534 <__vector_11+0x102>
	else 
	{
		Task0 = TASK0_COUNT;
     468:	22 e0       	ldi	r18, 0x02	; 2
     46a:	20 93 ec 00 	sts	0x00EC, r18
		msg.bFlag.Task0 = ON;
     46e:	80 91 b7 07 	lds	r24, 0x07B7
     472:	81 60       	ori	r24, 0x01	; 1
     474:	80 93 b7 07 	sts	0x07B7, r24
		if ( Task1 ) Task1--;
     478:	80 91 ed 00 	lds	r24, 0x00ED
     47c:	88 23       	and	r24, r24
     47e:	21 f0       	breq	.+8      	; 0x488 <__vector_11+0x56>
     480:	81 50       	subi	r24, 0x01	; 1
     482:	80 93 ed 00 	sts	0x00ED, r24
     486:	56 c0       	rjmp	.+172    	; 0x534 <__vector_11+0x102>
		else
		{
			Task1 = TASK1_COUNT;
     488:	8a e0       	ldi	r24, 0x0A	; 10
     48a:	80 93 ed 00 	sts	0x00ED, r24
			msg.bFlag.Task1 = ON;
     48e:	80 91 b7 07 	lds	r24, 0x07B7
     492:	82 60       	ori	r24, 0x02	; 2
     494:	80 93 b7 07 	sts	0x07B7, r24
			if ( Task2 ) Task2--;
     498:	80 91 ee 00 	lds	r24, 0x00EE
     49c:	88 23       	and	r24, r24
     49e:	21 f0       	breq	.+8      	; 0x4a8 <__vector_11+0x76>
     4a0:	81 50       	subi	r24, 0x01	; 1
     4a2:	80 93 ee 00 	sts	0x00EE, r24
     4a6:	46 c0       	rjmp	.+140    	; 0x534 <__vector_11+0x102>
			else
			{
				Task2 = TASK2_COUNT;	 
     4a8:	95 e0       	ldi	r25, 0x05	; 5
     4aa:	90 93 ee 00 	sts	0x00EE, r25
				msg.bFlag.Task2 = ON;
     4ae:	80 91 b7 07 	lds	r24, 0x07B7
     4b2:	84 60       	ori	r24, 0x04	; 4
     4b4:	80 93 b7 07 	sts	0x07B7, r24
				if ( Task3 ) Task3--;
     4b8:	80 91 ef 00 	lds	r24, 0x00EF
     4bc:	88 23       	and	r24, r24
     4be:	21 f0       	breq	.+8      	; 0x4c8 <__vector_11+0x96>
     4c0:	81 50       	subi	r24, 0x01	; 1
     4c2:	80 93 ef 00 	sts	0x00EF, r24
     4c6:	36 c0       	rjmp	.+108    	; 0x534 <__vector_11+0x102>
				else
				{
					Task3 = TASK3_COUNT;	 
     4c8:	90 93 ef 00 	sts	0x00EF, r25
					msg.bFlag.Task3 = ON;
     4cc:	80 91 b7 07 	lds	r24, 0x07B7
     4d0:	88 60       	ori	r24, 0x08	; 8
     4d2:	80 93 b7 07 	sts	0x07B7, r24
					if ( Task4 ) Task4--;
     4d6:	80 91 f0 00 	lds	r24, 0x00F0
     4da:	88 23       	and	r24, r24
     4dc:	21 f0       	breq	.+8      	; 0x4e6 <__vector_11+0xb4>
     4de:	81 50       	subi	r24, 0x01	; 1
     4e0:	80 93 f0 00 	sts	0x00F0, r24
     4e4:	27 c0       	rjmp	.+78     	; 0x534 <__vector_11+0x102>
					else
					{
						Task4 = TASK4_COUNT;	 
     4e6:	20 93 f0 00 	sts	0x00F0, r18
						msg.bFlag.Task4 = ON;
     4ea:	80 91 b7 07 	lds	r24, 0x07B7
     4ee:	80 61       	ori	r24, 0x10	; 16
     4f0:	80 93 b7 07 	sts	0x07B7, r24
						if ( Task5 ) Task5--;
     4f4:	80 91 f1 00 	lds	r24, 0x00F1
     4f8:	88 23       	and	r24, r24
     4fa:	21 f0       	breq	.+8      	; 0x504 <__vector_11+0xd2>
     4fc:	81 50       	subi	r24, 0x01	; 1
     4fe:	80 93 f1 00 	sts	0x00F1, r24
     502:	18 c0       	rjmp	.+48     	; 0x534 <__vector_11+0x102>
						else
						{
							Task5 = TASK5_COUNT;	 
     504:	83 e0       	ldi	r24, 0x03	; 3
     506:	80 93 f1 00 	sts	0x00F1, r24
							msg.bFlag.Task5 = ON;
     50a:	80 91 b7 07 	lds	r24, 0x07B7
     50e:	80 62       	ori	r24, 0x20	; 32
     510:	80 93 b7 07 	sts	0x07B7, r24
							if ( Task6 ) Task6--;
     514:	80 91 f2 00 	lds	r24, 0x00F2
     518:	88 23       	and	r24, r24
     51a:	21 f0       	breq	.+8      	; 0x524 <__vector_11+0xf2>
     51c:	81 50       	subi	r24, 0x01	; 1
     51e:	80 93 f2 00 	sts	0x00F2, r24
     522:	08 c0       	rjmp	.+16     	; 0x534 <__vector_11+0x102>
							else
							{
								Task6 = TASK6_COUNT;	 
     524:	84 e1       	ldi	r24, 0x14	; 20
     526:	80 93 f2 00 	sts	0x00F2, r24
								msg.bFlag.Task6 = ON;
     52a:	80 91 b7 07 	lds	r24, 0x07B7
     52e:	80 64       	ori	r24, 0x40	; 64
     530:	80 93 b7 07 	sts	0x07B7, r24
     534:	9f 91       	pop	r25
     536:	8f 91       	pop	r24
     538:	2f 91       	pop	r18
     53a:	0f 90       	pop	r0
     53c:	0f be       	out	0x3f, r0	; 63
     53e:	0f 90       	pop	r0
     540:	1f 90       	pop	r1
     542:	18 95       	reti

00000544 <Delay_ms>:
							}
						}
					}
				}
			}
		}
	}
}
//-----------------------------------------------------------------------------
// Delay N ms Rountine
//-----------------------------------------------------------------------------
void Delay_ms ( char N )
{
	msg.Count_ms = N;
     544:	80 93 b8 07 	sts	0x07B8, r24
	while ( msg.Count_ms );
     548:	80 91 b8 07 	lds	r24, 0x07B8
     54c:	88 23       	and	r24, r24
     54e:	e1 f7       	brne	.-8      	; 0x548 <Delay_ms+0x4>
     550:	08 95       	ret

00000552 <Uart0_Initial>:
// Initial Rountine
//-----------------------------------------------------------------------------
void Uart0_Initial ( void )
{
    UCSRA = (1<<TXC)|(1<<UDRE)|(0<<U2X);
     552:	80 e6       	ldi	r24, 0x60	; 96
     554:	8b b9       	out	0x0b, r24	; 11
    UCSRB = (1<<RXCIE)|(0<<TXCIE)|(1<<RXEN)|(0<<TXEN);
     556:	80 e9       	ldi	r24, 0x90	; 144
     558:	8a b9       	out	0x0a, r24	; 10
	#if defined(UART0_9BIT_2STOP)
    UCSRC = (1<<URSEL)|(1<<USBS)|(1<<UCSZ1)|(1<<UCSZ0);
	UCSRB |= (1<<UCSZ2);
	#elif defined(UART0_9BIT_1STOP)
    UCSRC = (1<<URSEL)|(0<<USBS)|(1<<UCSZ1)|(1<<UCSZ0);
	UCSRB |= (1<<UCSZ2);
	#elif defined(UART0_8BIT_2STOP)
    UCSRC = (1<<URSEL)|(1<<USBS)|(1<<UCSZ1)|(1<<UCSZ0);
     55a:	8e e8       	ldi	r24, 0x8E	; 142
     55c:	80 bd       	out	0x20, r24	; 32
     55e:	08 95       	ret

00000560 <Uart0_Receive_Baud>:
	#else
    UCSRC = (1<<URSEL)|(0<<USBS)|(1<<UCSZ1)|(1<<UCSZ0);
	#endif
}
//-----------------------------------------------------------------------------
// Uart0 Set Receive Baud Rountine
//-----------------------------------------------------------------------------
void Uart0_Receive_Baud ( char sel )
{
	if ( sel )
     560:	88 23       	and	r24, r24
     562:	49 f0       	breq	.+18     	; 0x576 <Uart0_Receive_Baud+0x16>
	{
		UBRRH = (char)(UBRR0_RECV_VALUE >> 8) & (~(1<<URSEL));
     564:	10 bc       	out	0x20, r1	; 32
		UBRRL = (char) UBRR0_RECV_VALUE;
     566:	81 e2       	ldi	r24, 0x21	; 33
     568:	89 b9       	out	0x09, r24	; 9
		#ifdef  UART0_MUTLCPU_MODE
		UCSRA |= (1<<MPCM);
     56a:	58 9a       	sbi	0x0b, 0	; 11
		#endif
		UCSRB |= (1<<RXCIE)|(1<<RXEN);
     56c:	8a b1       	in	r24, 0x0a	; 10
     56e:	80 69       	ori	r24, 0x90	; 144
     570:	8a b9       	out	0x0a, r24	; 10
		UCSRB &=~(1<<TXEN);
     572:	53 98       	cbi	0x0a, 3	; 10
     574:	08 95       	ret
	}
	else
	{
		UBRRH = (char)(UBRR0_SEND_VALUE >> 8) & (~(1<<URSEL));
     576:	80 bd       	out	0x20, r24	; 32
		UBRRL = (char) UBRR0_SEND_VALUE;
     578:	81 e2       	ldi	r24, 0x21	; 33
     57a:	89 b9       	out	0x09, r24	; 9
		UCSRB &=~((1<<RXCIE)|(1<<RXEN));
     57c:	8a b1       	in	r24, 0x0a	; 10
     57e:	8f 76       	andi	r24, 0x6F	; 111
     580:	8a b9       	out	0x0a, r24	; 10
		UCSRB |= (1<<TXEN);			 
     582:	53 9a       	sbi	0x0a, 3	; 10
     584:	08 95       	ret

00000586 <__vector_13>:
	}
}
//-----------------------------------------------------------------------------
// Uart0 Receive ISR Rountine
//-----------------------------------------------------------------------------
Uart0_ISR(RECV)
{
     586:	1f 92       	push	r1
     588:	0f 92       	push	r0
     58a:	0f b6       	in	r0, 0x3f	; 63
     58c:	0f 92       	push	r0
     58e:	11 24       	eor	r1, r1
     590:	8f 93       	push	r24
	unsigned char Status, Data;
	Status = UCSRB;
     592:	8a b1       	in	r24, 0x0a	; 10
	Data = UDR;
     594:	8c b1       	in	r24, 0x0c	; 12
	#ifdef UART0_CHECK_FRAME
	unsigned char temp;
	if ((temp = UCSRA & ((1<<FE)|(1<<DOR)))) return;
	#endif
	#ifdef UART0_CHECK_ADDRESSBIT
	if (!( Status & (1<<RXB8))) return;
	#endif
	// Info_Receive ( Data );
	#ifdef  UART0_MUTLCPU_MODE
	UCSRA |= (1<<MPCM);
     596:	58 9a       	sbi	0x0b, 0	; 11
	#endif
	UCSRB |= (1<<RXCIE)|(1<<RXEN);
     598:	8a b1       	in	r24, 0x0a	; 10
     59a:	80 69       	ori	r24, 0x90	; 144
     59c:	8a b9       	out	0x0a, r24	; 10
     59e:	8f 91       	pop	r24
     5a0:	0f 90       	pop	r0
     5a2:	0f be       	out	0x3f, r0	; 63
     5a4:	0f 90       	pop	r0
     5a6:	1f 90       	pop	r1
     5a8:	18 95       	reti

000005aa <Uart0_Wait_Receive>:
}
//-----------------------------------------------------------------------------
// Uart0 Wait Receive Rountine
//-----------------------------------------------------------------------------
char Uart0_Wait_Receive ( char * buf, unsigned char n, char timeout )
{
     5aa:	fc 01       	movw	r30, r24
	#ifdef UART0_CHECK_FRAME
	unsigned char temp;
	#endif
	#ifdef  UART0_MUTLCPU_MODE
	UCSRA &=~(1<<MPCM);
     5ac:	58 98       	cbi	0x0b, 0	; 11
	UCSRB &=~(1<<RXCIE);
     5ae:	57 98       	cbi	0x0a, 7	; 10
	#endif
	msg.Count_ms = timeout;
     5b0:	40 93 b8 07 	sts	0x07B8, r20
	while (1) {
		if ( UCSRA & (1<<RXC) )
     5b4:	5f 9b       	sbis	0x0b, 7	; 11
     5b6:	04 c0       	rjmp	.+8      	; 0x5c0 <Uart0_Wait_Receive+0x16>
		{
			*buf++ = UDR;
     5b8:	8c b1       	in	r24, 0x0c	; 12
     5ba:	81 93       	st	Z+, r24
			#ifdef UART0_CHECK_FRAME
 			if ((temp = UCSRA & ((1<<FE)|(1<<DOR)))) return FALSE;
			#endif
			if ( --n == ZERO ) break;
     5bc:	61 50       	subi	r22, 0x01	; 1
     5be:	39 f0       	breq	.+14     	; 0x5ce <Uart0_Wait_Receive+0x24>
		}
 		if ( msg.Count_ms == ZERO ) return FALSE;
     5c0:	80 91 b8 07 	lds	r24, 0x07B8
     5c4:	88 23       	and	r24, r24
     5c6:	b1 f7       	brne	.-20     	; 0x5b4 <Uart0_Wait_Receive+0xa>
     5c8:	80 e0       	ldi	r24, 0x00	; 0
     5ca:	90 e0       	ldi	r25, 0x00	; 0
     5cc:	08 95       	ret
	}
	UCSRB &=~(1<<RXEN);
     5ce:	54 98       	cbi	0x0a, 4	; 10
	return TRUE;
     5d0:	81 e0       	ldi	r24, 0x01	; 1
     5d2:	90 e0       	ldi	r25, 0x00	; 0
}
     5d4:	08 95       	ret

000005d6 <Uart0_Send>:
//-----------------------------------------------------------------------------
// Uart0 Send Rountine
//-----------------------------------------------------------------------------
char Uart0_Send ( char * buf, unsigned char n, char timeout )
{
     5d6:	fc 01       	movw	r30, r24
	msg.Count_ms = timeout;
     5d8:	40 93 b8 07 	sts	0x07B8, r20
    do {
	    while (!( UCSRA & (1<<UDRE)));
     5dc:	5d 9b       	sbis	0x0b, 5	; 11
     5de:	fe cf       	rjmp	.-4      	; 0x5dc <Uart0_Send+0x6>
		UCSRA |= (1<<TXC);
     5e0:	5e 9a       	sbi	0x0b, 6	; 11
		#ifdef RS485_LOOP_SEND
		UDR = n;
		#else
		UDR = *buf++;
     5e2:	81 91       	ld	r24, Z+
     5e4:	8c b9       	out	0x0c, r24	; 12
		#endif
 		if ( msg.Count_ms == ZERO ) return FALSE;
     5e6:	80 91 b8 07 	lds	r24, 0x07B8
     5ea:	88 23       	and	r24, r24
     5ec:	19 f4       	brne	.+6      	; 0x5f4 <Uart0_Send+0x1e>
     5ee:	80 e0       	ldi	r24, 0x00	; 0
     5f0:	90 e0       	ldi	r25, 0x00	; 0
     5f2:	08 95       	ret
	} while ( --n );
     5f4:	61 50       	subi	r22, 0x01	; 1
     5f6:	91 f7       	brne	.-28     	; 0x5dc <Uart0_Send+0x6>
	while (!( UCSRA & (1<<TXC)));
     5f8:	5e 9b       	sbis	0x0b, 6	; 11
     5fa:	fe cf       	rjmp	.-4      	; 0x5f8 <Uart0_Send+0x22>
	return TRUE;
     5fc:	81 e0       	ldi	r24, 0x01	; 1
     5fe:	90 e0       	ldi	r25, 0x00	; 0
}
     600:	08 95       	ret

00000602 <LCD_Initial>:
// LCD Initial Rountine
//-----------------------------------------------------------------------------
void LCD_Initial ( void )
{
	Delay_ms ( LCD_POWERON_WAIT_TIME );   
     602:	88 ec       	ldi	r24, 0xC8	; 200
     604:	0e 94 a2 02 	call	0x544 <Delay_ms>
    DBus_Write ( INSTRUCT, DATA_4BIT | LINE2_MODE );
     608:	68 e2       	ldi	r22, 0x28	; 40
     60a:	80 e0       	ldi	r24, 0x00	; 0
     60c:	0e 94 3d 01 	call	0x27a <DBus_Write>
	Delay ( LCD_INSTRUCT_WAIT_TIME );
     610:	60 e9       	ldi	r22, 0x90	; 144
     612:	71 e0       	ldi	r23, 0x01	; 1
     614:	80 e0       	ldi	r24, 0x00	; 0
     616:	90 e0       	ldi	r25, 0x00	; 0
     618:	0e 94 cf 01 	call	0x39e <Delay>
	//DBus_Write_Enable ();
	Delay ( LCD_INSTRUCT_WAIT_TIME );
     61c:	60 e9       	ldi	r22, 0x90	; 144
     61e:	71 e0       	ldi	r23, 0x01	; 1
     620:	80 e0       	ldi	r24, 0x00	; 0
     622:	90 e0       	ldi	r25, 0x00	; 0
     624:	0e 94 cf 01 	call	0x39e <Delay>
    DBus_Write ( INSTRUCT, DATA_4BIT | LINE2_MODE );
     628:	68 e2       	ldi	r22, 0x28	; 40
     62a:	80 e0       	ldi	r24, 0x00	; 0
     62c:	0e 94 3d 01 	call	0x27a <DBus_Write>
	Delay ( LCD_INSTRUCT_WAIT_TIME );
     630:	60 e9       	ldi	r22, 0x90	; 144
     632:	71 e0       	ldi	r23, 0x01	; 1
     634:	80 e0       	ldi	r24, 0x00	; 0
     636:	90 e0       	ldi	r25, 0x00	; 0
     638:	0e 94 cf 01 	call	0x39e <Delay>
    DBus_Write ( INSTRUCT, DISPLAY_ON );
     63c:	6c e0       	ldi	r22, 0x0C	; 12
     63e:	80 e0       	ldi	r24, 0x00	; 0
     640:	0e 94 3d 01 	call	0x27a <DBus_Write>
	Delay ( LCD_INSTRUCT_WAIT_TIME );
     644:	60 e9       	ldi	r22, 0x90	; 144
     646:	71 e0       	ldi	r23, 0x01	; 1
     648:	80 e0       	ldi	r24, 0x00	; 0
     64a:	90 e0       	ldi	r25, 0x00	; 0
     64c:	0e 94 cf 01 	call	0x39e <Delay>
    DBus_Write ( INSTRUCT, DISPLAY_CLEAR );
     650:	61 e0       	ldi	r22, 0x01	; 1
     652:	80 e0       	ldi	r24, 0x00	; 0
     654:	0e 94 3d 01 	call	0x27a <DBus_Write>
	Delay_ms ( LCD_INSTRUCT_DEAL_TIME );
     658:	82 e0       	ldi	r24, 0x02	; 2
     65a:	0e 94 a2 02 	call	0x544 <Delay_ms>
    DBus_Write ( INSTRUCT, CHAR_INC );
     65e:	66 e0       	ldi	r22, 0x06	; 6
     660:	80 e0       	ldi	r24, 0x00	; 0
     662:	0e 94 3d 01 	call	0x27a <DBus_Write>
	Delay_ms ( LCD_INSTRUCT_DEAL_TIME );
     666:	82 e0       	ldi	r24, 0x02	; 2
     668:	0e 94 a2 02 	call	0x544 <Delay_ms>
	LCD_BackLight_OFF;
     66c:	96 9a       	sbi	0x12, 6	; 18
     66e:	8e 9a       	sbi	0x11, 6	; 17
     670:	08 95       	ret

00000672 <LCD_Set_Position>:
}
//-----------------------------------------------------------------------------
// LCD Write Instruct Rountine
//-----------------------------------------------------------------------------
void LCD_Set_Position ( unsigned char col, unsigned char row )
{
     672:	96 2f       	mov	r25, r22
    if ( row == ROW1 ) 
     674:	66 23       	and	r22, r22
     676:	31 f4       	brne	.+12     	; 0x684 <LCD_Set_Position+0x12>
		DBus_Write ( INSTRUCT, ROW1_REG0 + col );
     678:	80 58       	subi	r24, 0x80	; 128
     67a:	68 2f       	mov	r22, r24
     67c:	89 2f       	mov	r24, r25
     67e:	0e 94 3d 01 	call	0x27a <DBus_Write>
     682:	08 95       	ret
    else if ( row == ROW2 )
     684:	61 30       	cpi	r22, 0x01	; 1
     686:	29 f4       	brne	.+10     	; 0x692 <LCD_Set_Position+0x20>
		DBus_Write ( INSTRUCT, ROW2_REG0 + col );
     688:	80 54       	subi	r24, 0x40	; 64
     68a:	68 2f       	mov	r22, r24
     68c:	80 e0       	ldi	r24, 0x00	; 0
     68e:	0e 94 3d 01 	call	0x27a <DBus_Write>
     692:	08 95       	ret

00000694 <LCD_Update>:
}
//-----------------------------------------------------------------------------
// LCD Update Rountine
//-----------------------------------------------------------------------------
void LCD_Update ( unsigned char col, unsigned char row, char* str )
{
     694:	1f 93       	push	r17
     696:	cf 93       	push	r28
     698:	df 93       	push	r29
     69a:	ea 01       	movw	r28, r20
	unsigned char n = 0;
     69c:	10 e0       	ldi	r17, 0x00	; 0

    LCD_Set_Position ( col, row );    
     69e:	0e 94 39 03 	call	0x672 <LCD_Set_Position>
    while ( * str ) 
	{
		DBus_Write ( DATA, *str++ );
		if ( ++n == COLUMN_MAX ) break;
     6a2:	88 81       	ld	r24, Y
     6a4:	88 23       	and	r24, r24
     6a6:	59 f0       	breq	.+22     	; 0x6be <LCD_Update+0x2a>
     6a8:	89 91       	ld	r24, Y+
     6aa:	68 2f       	mov	r22, r24
     6ac:	81 e0       	ldi	r24, 0x01	; 1
     6ae:	0e 94 3d 01 	call	0x27a <DBus_Write>
     6b2:	1f 5f       	subi	r17, 0xFF	; 255
     6b4:	10 31       	cpi	r17, 0x10	; 16
     6b6:	19 f0       	breq	.+6      	; 0x6be <LCD_Update+0x2a>
     6b8:	88 81       	ld	r24, Y
     6ba:	88 23       	and	r24, r24
     6bc:	a9 f7       	brne	.-22     	; 0x6a8 <LCD_Update+0x14>
     6be:	df 91       	pop	r29
     6c0:	cf 91       	pop	r28
     6c2:	1f 91       	pop	r17
     6c4:	08 95       	ret

000006c6 <LCD_Clear_Display>:
	}
}
//-----------------------------------------------------------------------------
// LCD Clear Display Rountine
//-----------------------------------------------------------------------------
void LCD_Clear_Display ( void )
{
	DBus_Write ( INSTRUCT, DISPLAY_CLEAR );
     6c6:	61 e0       	ldi	r22, 0x01	; 1
     6c8:	80 e0       	ldi	r24, 0x00	; 0
     6ca:	0e 94 3d 01 	call	0x27a <DBus_Write>
	Delay_ms ( LCD_INSTRUCT_DEAL_TIME );
     6ce:	82 e0       	ldi	r24, 0x02	; 2
     6d0:	0e 94 a2 02 	call	0x544 <Delay_ms>
     6d4:	08 95       	ret

000006d6 <main>:
//-----------------------------------------------------------------------------
// Main Rountine
//-----------------------------------------------------------------------------
int main ( void )
{
     6d6:	cf e5       	ldi	r28, 0x5F	; 95
     6d8:	d8 e0       	ldi	r29, 0x08	; 8
     6da:	de bf       	out	0x3e, r29	; 62
     6dc:	cd bf       	out	0x3d, r28	; 61
	memcset ((char *) &msg, 0, sizeof (STMSG));
     6de:	42 ec       	ldi	r20, 0xC2	; 194
     6e0:	60 e0       	ldi	r22, 0x00	; 0
     6e2:	84 e2       	ldi	r24, 0x24	; 36
     6e4:	97 e0       	ldi	r25, 0x07	; 7
     6e6:	0e 94 71 06 	call	0xce2 <memcset>

	CPU_Initial ();	
     6ea:	0e 94 53 06 	call	0xca6 <CPU_Initial>

	LCD_Initial ();
     6ee:	0e 94 01 03 	call	0x602 <LCD_Initial>

	Charger_Initial ();
     6f2:	0e 94 f3 16 	call	0x2de6 <Charger_Initial>

	while ( 1 )
	{
		if ( msg.bFlag.Task0 )
     6f6:	80 91 b7 07 	lds	r24, 0x07B7
     6fa:	80 ff       	sbrs	r24, 0
     6fc:	0e c0       	rjmp	.+28     	; 0x71a <main+0x44>
		{
			msg.bFlag.Task0 = OFF;
     6fe:	80 91 b7 07 	lds	r24, 0x07B7
     702:	8e 7f       	andi	r24, 0xFE	; 254
     704:	80 93 b7 07 	sts	0x07B7, r24
			ADC_Polling ((PSTADC) &msg.Adc, msg.Run.Status.Charge );
     708:	80 91 26 07 	lds	r24, 0x0726
     70c:	86 95       	lsr	r24
     70e:	81 70       	andi	r24, 0x01	; 1
     710:	68 2f       	mov	r22, r24
     712:	89 e8       	ldi	r24, 0x89	; 137
     714:	97 e0       	ldi	r25, 0x07	; 7
     716:	0e 94 d7 00 	call	0x1ae <ADC_Polling>
		}
		if ( msg.bFlag.Task1 )
     71a:	80 91 b7 07 	lds	r24, 0x07B7
     71e:	81 ff       	sbrs	r24, 1
     720:	11 c0       	rjmp	.+34     	; 0x744 <main+0x6e>
		{
			msg.bFlag.Task1 = OFF;
     722:	80 91 b7 07 	lds	r24, 0x07B7
     726:	8d 7f       	andi	r24, 0xFD	; 253
     728:	80 93 b7 07 	sts	0x07B7, r24
			//RunLed_
			if ( msg.Run.Ctrl.Key == OPEN ) Get_Key_Code ((PSTKEY) &msg.Key, msg.Set.Key_Beep );						
     72c:	80 91 27 07 	lds	r24, 0x0727
     730:	80 ff       	sbrs	r24, 0
     732:	08 c0       	rjmp	.+16     	; 0x744 <main+0x6e>
     734:	80 91 25 07 	lds	r24, 0x0725
     738:	81 70       	andi	r24, 0x01	; 1
     73a:	68 2f       	mov	r22, r24
     73c:	87 ea       	ldi	r24, 0xA7	; 167
     73e:	97 e0       	ldi	r25, 0x07	; 7
     740:	0e 94 8f 01 	call	0x31e <Get_Key_Code>
		}
		if ( msg.bFlag.Task2 )
     744:	80 91 b7 07 	lds	r24, 0x07B7
     748:	82 ff       	sbrs	r24, 2
     74a:	0c c0       	rjmp	.+24     	; 0x764 <main+0x8e>
		{
			msg.bFlag.Task2 = OFF;
     74c:	80 91 b7 07 	lds	r24, 0x07B7
     750:	8b 7f       	andi	r24, 0xFB	; 251
     752:	80 93 b7 07 	sts	0x07B7, r24
			PWM_Control ((PSTPWM) &msg.Pwm, 10, PWM_STEP_FAST );						
     756:	41 e0       	ldi	r20, 0x01	; 1
     758:	6a e0       	ldi	r22, 0x0A	; 10
     75a:	70 e0       	ldi	r23, 0x00	; 0
     75c:	83 e8       	ldi	r24, 0x83	; 131
     75e:	97 e0       	ldi	r25, 0x07	; 7
     760:	0e 94 f2 01 	call	0x3e4 <PWM_Control>
		}
		if ( msg.bFlag.Task3 )
     764:	80 91 b7 07 	lds	r24, 0x07B7
     768:	83 ff       	sbrs	r24, 3
     76a:	09 c0       	rjmp	.+18     	; 0x77e <main+0xa8>
		{
			msg.bFlag.Task3 = OFF;		
     76c:	80 91 b7 07 	lds	r24, 0x07B7
     770:	87 7f       	andi	r24, 0xF7	; 247
     772:	80 93 b7 07 	sts	0x07B7, r24
			Charger_Operate ((PSTMSG) &msg );
     776:	84 e2       	ldi	r24, 0x24	; 36
     778:	97 e0       	ldi	r25, 0x07	; 7
     77a:	0e 94 f4 16 	call	0x2de8 <Charger_Operate>
		}
		if ( msg.bFlag.Task4 )
     77e:	80 91 b7 07 	lds	r24, 0x07B7
     782:	84 ff       	sbrs	r24, 4
     784:	09 c0       	rjmp	.+18     	; 0x798 <main+0xc2>
		{
			msg.bFlag.Task4 = OFF;
     786:	80 91 b7 07 	lds	r24, 0x07B7
     78a:	8f 7e       	andi	r24, 0xEF	; 239
     78c:	80 93 b7 07 	sts	0x07B7, r24
			Menu_Entry ((PSTMSG) &msg );
     790:	84 e2       	ldi	r24, 0x24	; 36
     792:	97 e0       	ldi	r25, 0x07	; 7
     794:	0e 94 a6 05 	call	0xb4c <Menu_Entry>
			//RunLed_On;
		}
		if ( msg.bFlag.Task5 )
     798:	80 91 b7 07 	lds	r24, 0x07B7
     79c:	85 ff       	sbrs	r24, 5
     79e:	05 c0       	rjmp	.+10     	; 0x7aa <main+0xd4>
		{
			msg.bFlag.Task5 = OFF;
     7a0:	80 91 b7 07 	lds	r24, 0x07B7
     7a4:	8f 7d       	andi	r24, 0xDF	; 223
     7a6:	80 93 b7 07 	sts	0x07B7, r24

		}
		if ( msg.bFlag.Task5 )
     7aa:	80 91 b7 07 	lds	r24, 0x07B7
     7ae:	85 ff       	sbrs	r24, 5
     7b0:	a2 cf       	rjmp	.-188    	; 0x6f6 <main+0x20>
		{
			msg.bFlag.Task5 = OFF;
     7b2:	80 91 b7 07 	lds	r24, 0x07B7
     7b6:	8f 7d       	andi	r24, 0xDF	; 223
     7b8:	80 93 b7 07 	sts	0x07B7, r24
     7bc:	9c cf       	rjmp	.-200    	; 0x6f6 <main+0x20>

000007be <Menu_Jump>:
//-----------------------------------------------------------------------------
// Menu Jump Rountine
//-----------------------------------------------------------------------------
void Menu_Jump ( PSTMSG p, unsigned char Layer, unsigned char Num )
{
     7be:	0f 93       	push	r16
     7c0:	1f 93       	push	r17
     7c2:	fc 01       	movw	r30, r24
	p->Menu.Num_Top = OFF;
     7c4:	91 85       	ldd	r25, Z+9	; 0x09
	p->Menu.Seq_End = OFF;
	p->Menu.Seq_Dec = OFF;
	p->Menu.Seq_Inc = OFF;
	p->Menu.Toggle  = OFF;
     7c6:	89 2f       	mov	r24, r25
     7c8:	81 7c       	andi	r24, 0xC1	; 193
     7ca:	81 87       	std	Z+9, r24	; 0x09
	p->Menu.Sub = CLEAR;
     7cc:	17 82       	std	Z+7, r1	; 0x07
	if ( Num != CUR_NUM ) 
     7ce:	44 23       	and	r20, r20
     7d0:	19 f0       	breq	.+6      	; 0x7d8 <Menu_Jump+0x1a>
	{
		p->Menu.Num = Num;
     7d2:	46 83       	std	Z+6, r20	; 0x06
		p->Menu.Update = NEED;
     7d4:	91 78       	andi	r25, 0x81	; 129
     7d6:	91 87       	std	Z+9, r25	; 0x09
	}
	if ( Layer != CUR_LAYER )
     7d8:	66 23       	and	r22, r22
     7da:	89 f0       	breq	.+34     	; 0x7fe <Menu_Jump+0x40>
	{
		p->Menu.Layer = Layer;
     7dc:	65 83       	std	Z+5, r22	; 0x05
		p->Menu.Update = UNNEED;
     7de:	81 85       	ldd	r24, Z+9	; 0x09
     7e0:	80 64       	ori	r24, 0x40	; 64
		p->Menu.Key = CLOSE;
     7e2:	8f 77       	andi	r24, 0x7F	; 127
     7e4:	81 87       	std	Z+9, r24	; 0x09
		p->Key.n = FIFO_Clear ((unsigned char *) p->Key.FIFO, p->Key.n );
     7e6:	8f 01       	movw	r16, r30
     7e8:	03 57       	subi	r16, 0x73	; 115
     7ea:	1f 4f       	sbci	r17, 0xFF	; 255
     7ec:	d8 01       	movw	r26, r16
     7ee:	6c 91       	ld	r22, X
     7f0:	cf 01       	movw	r24, r30
     7f2:	8d 57       	subi	r24, 0x7D	; 125
     7f4:	9f 4f       	sbci	r25, 0xFF	; 255
     7f6:	0e 94 2e 06 	call	0xc5c <FIFO_Clear>
     7fa:	f8 01       	movw	r30, r16
     7fc:	80 83       	st	Z, r24
     7fe:	1f 91       	pop	r17
     800:	0f 91       	pop	r16
     802:	08 95       	ret

00000804 <Menu_Class>:
     804:	ef 92       	push	r14
     806:	ff 92       	push	r15
     808:	0f 93       	push	r16
     80a:	1f 93       	push	r17
     80c:	cf 93       	push	r28
     80e:	df 93       	push	r29
     810:	ec 01       	movw	r28, r24
     812:	8d 81       	ldd	r24, Y+5	; 0x05
     814:	81 30       	cpi	r24, 0x01	; 1
     816:	09 f0       	breq	.+2      	; 0x81a <Menu_Class+0x16>
     818:	27 c1       	rjmp	.+590    	; 0xa68 <__stack+0x209>
     81a:	29 85       	ldd	r18, Y+9	; 0x09
     81c:	27 ff       	sbrs	r18, 7
     81e:	3a c0       	rjmp	.+116    	; 0x894 <__stack+0x35>
     820:	92 2f       	mov	r25, r18
     822:	9f 7b       	andi	r25, 0xBF	; 191
     824:	99 87       	std	Y+9, r25	; 0x09
     826:	83 e8       	ldi	r24, 0x83	; 131
     828:	e8 2e       	mov	r14, r24
     82a:	f1 2c       	mov	r15, r1
     82c:	ec 0e       	add	r14, r28
     82e:	fd 1e       	adc	r15, r29
     830:	f7 01       	movw	r30, r14
     832:	40 81       	ld	r20, Z
     834:	41 30       	cpi	r20, 0x01	; 1
     836:	29 f4       	brne	.+10     	; 0x842 <Menu_Class+0x3e>
     838:	62 e0       	ldi	r22, 0x02	; 2
     83a:	ce 01       	movw	r24, r28
     83c:	0e 94 df 03 	call	0x7be <Menu_Jump>
     840:	1a c0       	rjmp	.+52     	; 0x876 <__stack+0x17>
     842:	40 34       	cpi	r20, 0x40	; 64
     844:	51 f4       	brne	.+20     	; 0x85a <Menu_Class+0x56>
     846:	21 fd       	sbrc	r18, 1
     848:	03 c0       	rjmp	.+6      	; 0x850 <Menu_Class+0x4c>
     84a:	8e 81       	ldd	r24, Y+6	; 0x06
     84c:	8f 5f       	subi	r24, 0xFF	; 255
     84e:	0b c0       	rjmp	.+22     	; 0x866 <__stack+0x7>
     850:	81 e0       	ldi	r24, 0x01	; 1
     852:	8e 83       	std	Y+6, r24	; 0x06
     854:	2d 7b       	andi	r18, 0xBD	; 189
     856:	29 87       	std	Y+9, r18	; 0x09
     858:	0e c0       	rjmp	.+28     	; 0x876 <__stack+0x17>
     85a:	42 30       	cpi	r20, 0x02	; 2
     85c:	51 f4       	brne	.+20     	; 0x872 <__stack+0x13>
     85e:	8e 81       	ldd	r24, Y+6	; 0x06
     860:	81 30       	cpi	r24, 0x01	; 1
     862:	19 f0       	breq	.+6      	; 0x86a <__stack+0xb>
     864:	81 50       	subi	r24, 0x01	; 1
     866:	8e 83       	std	Y+6, r24	; 0x06
     868:	06 c0       	rjmp	.+12     	; 0x876 <__stack+0x17>
     86a:	8c e0       	ldi	r24, 0x0C	; 12
     86c:	8e 83       	std	Y+6, r24	; 0x06
     86e:	92 60       	ori	r25, 0x02	; 2
     870:	01 c0       	rjmp	.+2      	; 0x874 <__stack+0x15>
     872:	90 64       	ori	r25, 0x40	; 64
     874:	99 87       	std	Y+9, r25	; 0x09
     876:	8e 01       	movw	r16, r28
     878:	03 57       	subi	r16, 0x73	; 115
     87a:	1f 4f       	sbci	r17, 0xFF	; 255
     87c:	f8 01       	movw	r30, r16
     87e:	60 81       	ld	r22, Z
     880:	c7 01       	movw	r24, r14
     882:	0e 94 42 06 	call	0xc84 <FIFO_Pop>
     886:	f8 01       	movw	r30, r16
     888:	80 83       	st	Z, r24
     88a:	89 85       	ldd	r24, Y+9	; 0x09
     88c:	86 ff       	sbrs	r24, 6
     88e:	02 c0       	rjmp	.+4      	; 0x894 <__stack+0x35>
     890:	8f 7b       	andi	r24, 0xBF	; 191
     892:	e9 c0       	rjmp	.+466    	; 0xa66 <__stack+0x207>
     894:	89 85       	ldd	r24, Y+9	; 0x09
     896:	80 6c       	ori	r24, 0xC0	; 192
     898:	89 87       	std	Y+9, r24	; 0x09
     89a:	8e 81       	ldd	r24, Y+6	; 0x06
     89c:	99 27       	eor	r25, r25
     89e:	86 30       	cpi	r24, 0x06	; 6
     8a0:	91 05       	cpc	r25, r1
     8a2:	09 f4       	brne	.+2      	; 0x8a6 <__stack+0x47>
     8a4:	82 c0       	rjmp	.+260    	; 0x9aa <__stack+0x14b>
     8a6:	87 30       	cpi	r24, 0x07	; 7
     8a8:	91 05       	cpc	r25, r1
     8aa:	ac f4       	brge	.+42     	; 0x8d6 <__stack+0x77>
     8ac:	83 30       	cpi	r24, 0x03	; 3
     8ae:	91 05       	cpc	r25, r1
     8b0:	09 f4       	brne	.+2      	; 0x8b4 <__stack+0x55>
     8b2:	4b c0       	rjmp	.+150    	; 0x94a <__stack+0xeb>
     8b4:	84 30       	cpi	r24, 0x04	; 4
     8b6:	91 05       	cpc	r25, r1
     8b8:	34 f4       	brge	.+12     	; 0x8c6 <__stack+0x67>
     8ba:	81 30       	cpi	r24, 0x01	; 1
     8bc:	91 05       	cpc	r25, r1
     8be:	31 f1       	breq	.+76     	; 0x90c <__stack+0xad>
     8c0:	02 97       	sbiw	r24, 0x02	; 2
     8c2:	99 f1       	breq	.+102    	; 0x92a <__stack+0xcb>
     8c4:	d1 c0       	rjmp	.+418    	; 0xa68 <__stack+0x209>
     8c6:	84 30       	cpi	r24, 0x04	; 4
     8c8:	91 05       	cpc	r25, r1
     8ca:	09 f4       	brne	.+2      	; 0x8ce <__stack+0x6f>
     8cc:	4e c0       	rjmp	.+156    	; 0x96a <__stack+0x10b>
     8ce:	05 97       	sbiw	r24, 0x05	; 5
     8d0:	09 f4       	brne	.+2      	; 0x8d4 <__stack+0x75>
     8d2:	5b c0       	rjmp	.+182    	; 0x98a <__stack+0x12b>
     8d4:	c9 c0       	rjmp	.+402    	; 0xa68 <__stack+0x209>
     8d6:	89 30       	cpi	r24, 0x09	; 9
     8d8:	91 05       	cpc	r25, r1
     8da:	09 f4       	brne	.+2      	; 0x8de <__stack+0x7f>
     8dc:	92 c0       	rjmp	.+292    	; 0xa02 <__stack+0x1a3>
     8de:	8a 30       	cpi	r24, 0x0A	; 10
     8e0:	91 05       	cpc	r25, r1
     8e2:	44 f4       	brge	.+16     	; 0x8f4 <__stack+0x95>
     8e4:	87 30       	cpi	r24, 0x07	; 7
     8e6:	91 05       	cpc	r25, r1
     8e8:	09 f4       	brne	.+2      	; 0x8ec <__stack+0x8d>
     8ea:	6f c0       	rjmp	.+222    	; 0x9ca <__stack+0x16b>
     8ec:	08 97       	sbiw	r24, 0x08	; 8
     8ee:	09 f4       	brne	.+2      	; 0x8f2 <__stack+0x93>
     8f0:	7a c0       	rjmp	.+244    	; 0x9e6 <__stack+0x187>
     8f2:	ba c0       	rjmp	.+372    	; 0xa68 <__stack+0x209>
     8f4:	8b 30       	cpi	r24, 0x0B	; 11
     8f6:	91 05       	cpc	r25, r1
     8f8:	09 f4       	brne	.+2      	; 0x8fc <__stack+0x9d>
     8fa:	9f c0       	rjmp	.+318    	; 0xa3a <__stack+0x1db>
     8fc:	8b 30       	cpi	r24, 0x0B	; 11
     8fe:	91 05       	cpc	r25, r1
     900:	0c f4       	brge	.+2      	; 0x904 <__stack+0xa5>
     902:	8d c0       	rjmp	.+282    	; 0xa1e <__stack+0x1bf>
     904:	0c 97       	sbiw	r24, 0x0c	; 12
     906:	09 f4       	brne	.+2      	; 0x90a <__stack+0xab>
     908:	a7 c0       	rjmp	.+334    	; 0xa58 <__stack+0x1f9>
     90a:	ae c0       	rjmp	.+348    	; 0xa68 <__stack+0x209>
     90c:	43 ef       	ldi	r20, 0xF3	; 243
     90e:	50 e0       	ldi	r21, 0x00	; 0
     910:	60 e0       	ldi	r22, 0x00	; 0
     912:	86 2f       	mov	r24, r22
     914:	0e 94 4a 03 	call	0x694 <LCD_Update>
     918:	40 e0       	ldi	r20, 0x00	; 0
     91a:	51 e0       	ldi	r21, 0x01	; 1
     91c:	61 e0       	ldi	r22, 0x01	; 1
     91e:	80 e0       	ldi	r24, 0x00	; 0
     920:	0e 94 4a 03 	call	0x694 <LCD_Update>
     924:	1a 86       	std	Y+10, r1	; 0x0a
     926:	81 e0       	ldi	r24, 0x01	; 1
     928:	95 c0       	rjmp	.+298    	; 0xa54 <__stack+0x1f5>
     92a:	43 ef       	ldi	r20, 0xF3	; 243
     92c:	50 e0       	ldi	r21, 0x00	; 0
     92e:	60 e0       	ldi	r22, 0x00	; 0
     930:	86 2f       	mov	r24, r22
     932:	0e 94 4a 03 	call	0x694 <LCD_Update>
     936:	4d e0       	ldi	r20, 0x0D	; 13
     938:	51 e0       	ldi	r21, 0x01	; 1
     93a:	61 e0       	ldi	r22, 0x01	; 1
     93c:	80 e0       	ldi	r24, 0x00	; 0
     93e:	0e 94 4a 03 	call	0x694 <LCD_Update>
     942:	81 e0       	ldi	r24, 0x01	; 1
     944:	8a 87       	std	Y+10, r24	; 0x0a
     946:	82 e0       	ldi	r24, 0x02	; 2
     948:	85 c0       	rjmp	.+266    	; 0xa54 <__stack+0x1f5>
     94a:	43 ef       	ldi	r20, 0xF3	; 243
     94c:	50 e0       	ldi	r21, 0x00	; 0
     94e:	60 e0       	ldi	r22, 0x00	; 0
     950:	86 2f       	mov	r24, r22
     952:	0e 94 4a 03 	call	0x694 <LCD_Update>
     956:	4a e1       	ldi	r20, 0x1A	; 26
     958:	51 e0       	ldi	r21, 0x01	; 1
     95a:	61 e0       	ldi	r22, 0x01	; 1
     95c:	80 e0       	ldi	r24, 0x00	; 0
     95e:	0e 94 4a 03 	call	0x694 <LCD_Update>
     962:	82 e0       	ldi	r24, 0x02	; 2
     964:	8a 87       	std	Y+10, r24	; 0x0a
     966:	83 e0       	ldi	r24, 0x03	; 3
     968:	75 c0       	rjmp	.+234    	; 0xa54 <__stack+0x1f5>
     96a:	43 ef       	ldi	r20, 0xF3	; 243
     96c:	50 e0       	ldi	r21, 0x00	; 0
     96e:	60 e0       	ldi	r22, 0x00	; 0
     970:	86 2f       	mov	r24, r22
     972:	0e 94 4a 03 	call	0x694 <LCD_Update>
     976:	47 e2       	ldi	r20, 0x27	; 39
     978:	51 e0       	ldi	r21, 0x01	; 1
     97a:	61 e0       	ldi	r22, 0x01	; 1
     97c:	80 e0       	ldi	r24, 0x00	; 0
     97e:	0e 94 4a 03 	call	0x694 <LCD_Update>
     982:	83 e0       	ldi	r24, 0x03	; 3
     984:	8a 87       	std	Y+10, r24	; 0x0a
     986:	84 e0       	ldi	r24, 0x04	; 4
     988:	65 c0       	rjmp	.+202    	; 0xa54 <__stack+0x1f5>
     98a:	43 ef       	ldi	r20, 0xF3	; 243
     98c:	50 e0       	ldi	r21, 0x00	; 0
     98e:	60 e0       	ldi	r22, 0x00	; 0
     990:	86 2f       	mov	r24, r22
     992:	0e 94 4a 03 	call	0x694 <LCD_Update>
     996:	44 e3       	ldi	r20, 0x34	; 52
     998:	51 e0       	ldi	r21, 0x01	; 1
     99a:	61 e0       	ldi	r22, 0x01	; 1
     99c:	80 e0       	ldi	r24, 0x00	; 0
     99e:	0e 94 4a 03 	call	0x694 <LCD_Update>
     9a2:	84 e0       	ldi	r24, 0x04	; 4
     9a4:	8a 87       	std	Y+10, r24	; 0x0a
     9a6:	85 e0       	ldi	r24, 0x05	; 5
     9a8:	55 c0       	rjmp	.+170    	; 0xa54 <__stack+0x1f5>
     9aa:	43 ef       	ldi	r20, 0xF3	; 243
     9ac:	50 e0       	ldi	r21, 0x00	; 0
     9ae:	60 e0       	ldi	r22, 0x00	; 0
     9b0:	86 2f       	mov	r24, r22
     9b2:	0e 94 4a 03 	call	0x694 <LCD_Update>
     9b6:	41 e4       	ldi	r20, 0x41	; 65
     9b8:	51 e0       	ldi	r21, 0x01	; 1
     9ba:	61 e0       	ldi	r22, 0x01	; 1
     9bc:	80 e0       	ldi	r24, 0x00	; 0
     9be:	0e 94 4a 03 	call	0x694 <LCD_Update>
     9c2:	85 e0       	ldi	r24, 0x05	; 5
     9c4:	8a 87       	std	Y+10, r24	; 0x0a
     9c6:	86 e0       	ldi	r24, 0x06	; 6
     9c8:	45 c0       	rjmp	.+138    	; 0xa54 <__stack+0x1f5>
     9ca:	43 ef       	ldi	r20, 0xF3	; 243
     9cc:	50 e0       	ldi	r21, 0x00	; 0
     9ce:	60 e0       	ldi	r22, 0x00	; 0
     9d0:	86 2f       	mov	r24, r22
     9d2:	0e 94 4a 03 	call	0x694 <LCD_Update>
     9d6:	4c e4       	ldi	r20, 0x4C	; 76
     9d8:	51 e0       	ldi	r21, 0x01	; 1
     9da:	61 e0       	ldi	r22, 0x01	; 1
     9dc:	80 e0       	ldi	r24, 0x00	; 0
     9de:	0e 94 4a 03 	call	0x694 <LCD_Update>
     9e2:	87 e0       	ldi	r24, 0x07	; 7
     9e4:	37 c0       	rjmp	.+110    	; 0xa54 <__stack+0x1f5>
     9e6:	49 e5       	ldi	r20, 0x59	; 89
     9e8:	51 e0       	ldi	r21, 0x01	; 1
     9ea:	60 e0       	ldi	r22, 0x00	; 0
     9ec:	86 2f       	mov	r24, r22
     9ee:	0e 94 4a 03 	call	0x694 <LCD_Update>
     9f2:	49 e6       	ldi	r20, 0x69	; 105
     9f4:	51 e0       	ldi	r21, 0x01	; 1
     9f6:	61 e0       	ldi	r22, 0x01	; 1
     9f8:	80 e0       	ldi	r24, 0x00	; 0
     9fa:	0e 94 4a 03 	call	0x694 <LCD_Update>
     9fe:	88 e0       	ldi	r24, 0x08	; 8
     a00:	29 c0       	rjmp	.+82     	; 0xa54 <__stack+0x1f5>
     a02:	49 e5       	ldi	r20, 0x59	; 89
     a04:	51 e0       	ldi	r21, 0x01	; 1
     a06:	60 e0       	ldi	r22, 0x00	; 0
     a08:	86 2f       	mov	r24, r22
     a0a:	0e 94 4a 03 	call	0x694 <LCD_Update>
     a0e:	4a e7       	ldi	r20, 0x7A	; 122
     a10:	51 e0       	ldi	r21, 0x01	; 1
     a12:	61 e0       	ldi	r22, 0x01	; 1
     a14:	80 e0       	ldi	r24, 0x00	; 0
     a16:	0e 94 4a 03 	call	0x694 <LCD_Update>
     a1a:	89 e0       	ldi	r24, 0x09	; 9
     a1c:	1b c0       	rjmp	.+54     	; 0xa54 <__stack+0x1f5>
     a1e:	49 e5       	ldi	r20, 0x59	; 89
     a20:	51 e0       	ldi	r21, 0x01	; 1
     a22:	60 e0       	ldi	r22, 0x00	; 0
     a24:	86 2f       	mov	r24, r22
     a26:	0e 94 4a 03 	call	0x694 <LCD_Update>
     a2a:	49 e8       	ldi	r20, 0x89	; 137
     a2c:	51 e0       	ldi	r21, 0x01	; 1
     a2e:	61 e0       	ldi	r22, 0x01	; 1
     a30:	80 e0       	ldi	r24, 0x00	; 0
     a32:	0e 94 4a 03 	call	0x694 <LCD_Update>
     a36:	8a e0       	ldi	r24, 0x0A	; 10
     a38:	0d c0       	rjmp	.+26     	; 0xa54 <__stack+0x1f5>
     a3a:	49 e5       	ldi	r20, 0x59	; 89
     a3c:	51 e0       	ldi	r21, 0x01	; 1
     a3e:	60 e0       	ldi	r22, 0x00	; 0
     a40:	86 2f       	mov	r24, r22
     a42:	0e 94 4a 03 	call	0x694 <LCD_Update>
     a46:	4a e9       	ldi	r20, 0x9A	; 154
     a48:	51 e0       	ldi	r21, 0x01	; 1
     a4a:	61 e0       	ldi	r22, 0x01	; 1
     a4c:	80 e0       	ldi	r24, 0x00	; 0
     a4e:	0e 94 4a 03 	call	0x694 <LCD_Update>
     a52:	8b e0       	ldi	r24, 0x0B	; 11
     a54:	8c 83       	std	Y+4, r24	; 0x04
     a56:	08 c0       	rjmp	.+16     	; 0xa68 <__stack+0x209>
     a58:	ce 01       	movw	r24, r28
     a5a:	0e 94 51 1b 	call	0x36a2 <PMU_Out>
     a5e:	8c e0       	ldi	r24, 0x0C	; 12
     a60:	8c 83       	std	Y+4, r24	; 0x04
     a62:	89 85       	ldd	r24, Y+9	; 0x09
     a64:	82 60       	ori	r24, 0x02	; 2
     a66:	89 87       	std	Y+9, r24	; 0x09
     a68:	df 91       	pop	r29
     a6a:	cf 91       	pop	r28
     a6c:	1f 91       	pop	r17
     a6e:	0f 91       	pop	r16
     a70:	ff 90       	pop	r15
     a72:	ef 90       	pop	r14
     a74:	08 95       	ret

00000a76 <Menu_Start>:
     a76:	0f 93       	push	r16
     a78:	1f 93       	push	r17
     a7a:	cf 93       	push	r28
     a7c:	df 93       	push	r29
     a7e:	ec 01       	movw	r28, r24
     a80:	8d 81       	ldd	r24, Y+5	; 0x05
     a82:	88 23       	and	r24, r24
     a84:	09 f0       	breq	.+2      	; 0xa88 <Menu_Start+0x12>
     a86:	5d c0       	rjmp	.+186    	; 0xb42 <Menu_Start+0xcc>
     a88:	93 e0       	ldi	r25, 0x03	; 3
     a8a:	98 87       	std	Y+8, r25	; 0x08
     a8c:	8e 01       	movw	r16, r28
     a8e:	03 57       	subi	r16, 0x73	; 115
     a90:	1f 4f       	sbci	r17, 0xFF	; 255
     a92:	d8 01       	movw	r26, r16
     a94:	8c 91       	ld	r24, X
     a96:	88 23       	and	r24, r24
     a98:	b1 f0       	breq	.+44     	; 0xac6 <Menu_Start+0x50>
     a9a:	89 85       	ldd	r24, Y+9	; 0x09
     a9c:	87 ff       	sbrs	r24, 7
     a9e:	13 c0       	rjmp	.+38     	; 0xac6 <Menu_Start+0x50>
     aa0:	fe 01       	movw	r30, r28
     aa2:	ed 57       	subi	r30, 0x7D	; 125
     aa4:	ff 4f       	sbci	r31, 0xFF	; 255
     aa6:	80 81       	ld	r24, Z
     aa8:	80 39       	cpi	r24, 0x90	; 144
     aaa:	19 f4       	brne	.+6      	; 0xab2 <Menu_Start+0x3c>
     aac:	82 e0       	ldi	r24, 0x02	; 2
     aae:	8e 83       	std	Y+6, r24	; 0x06
     ab0:	03 c0       	rjmp	.+6      	; 0xab8 <Menu_Start+0x42>
     ab2:	81 39       	cpi	r24, 0x91	; 145
     ab4:	09 f4       	brne	.+2      	; 0xab8 <Menu_Start+0x42>
     ab6:	9e 83       	std	Y+6, r25	; 0x06
     ab8:	d8 01       	movw	r26, r16
     aba:	6c 91       	ld	r22, X
     abc:	cf 01       	movw	r24, r30
     abe:	0e 94 42 06 	call	0xc84 <FIFO_Pop>
     ac2:	f8 01       	movw	r30, r16
     ac4:	80 83       	st	Z, r24
     ac6:	8e 81       	ldd	r24, Y+6	; 0x06
     ac8:	99 27       	eor	r25, r25
     aca:	81 30       	cpi	r24, 0x01	; 1
     acc:	91 05       	cpc	r25, r1
     ace:	d9 f0       	breq	.+54     	; 0xb06 <Menu_Start+0x90>
     ad0:	82 30       	cpi	r24, 0x02	; 2
     ad2:	91 05       	cpc	r25, r1
     ad4:	1c f4       	brge	.+6      	; 0xadc <Menu_Start+0x66>
     ad6:	89 2b       	or	r24, r25
     ad8:	39 f0       	breq	.+14     	; 0xae8 <Menu_Start+0x72>
     ada:	2e c0       	rjmp	.+92     	; 0xb38 <Menu_Start+0xc2>
     adc:	82 30       	cpi	r24, 0x02	; 2
     ade:	91 05       	cpc	r25, r1
     ae0:	21 f1       	breq	.+72     	; 0xb2a <Menu_Start+0xb4>
     ae2:	03 97       	sbiw	r24, 0x03	; 3
     ae4:	29 f1       	breq	.+74     	; 0xb30 <Menu_Start+0xba>
     ae6:	28 c0       	rjmp	.+80     	; 0xb38 <Menu_Start+0xc2>
     ae8:	4b ea       	ldi	r20, 0xAB	; 171
     aea:	51 e0       	ldi	r21, 0x01	; 1
     aec:	60 e0       	ldi	r22, 0x00	; 0
     aee:	86 2f       	mov	r24, r22
     af0:	0e 94 4a 03 	call	0x694 <LCD_Update>
     af4:	48 eb       	ldi	r20, 0xB8	; 184
     af6:	51 e0       	ldi	r21, 0x01	; 1
     af8:	61 e0       	ldi	r22, 0x01	; 1
     afa:	80 e0       	ldi	r24, 0x00	; 0
     afc:	0e 94 4a 03 	call	0x694 <LCD_Update>
     b00:	8e 81       	ldd	r24, Y+6	; 0x06
     b02:	8f 5f       	subi	r24, 0xFF	; 255
     b04:	17 c0       	rjmp	.+46     	; 0xb34 <Menu_Start+0xbe>
     b06:	47 ec       	ldi	r20, 0xC7	; 199
     b08:	51 e0       	ldi	r21, 0x01	; 1
     b0a:	60 e0       	ldi	r22, 0x00	; 0
     b0c:	86 2f       	mov	r24, r22
     b0e:	0e 94 4a 03 	call	0x694 <LCD_Update>
     b12:	43 ed       	ldi	r20, 0xD3	; 211
     b14:	51 e0       	ldi	r21, 0x01	; 1
     b16:	61 e0       	ldi	r22, 0x01	; 1
     b18:	80 e0       	ldi	r24, 0x00	; 0
     b1a:	0e 94 4a 03 	call	0x694 <LCD_Update>
     b1e:	8f ef       	ldi	r24, 0xFF	; 255
     b20:	8e 83       	std	Y+6, r24	; 0x06
     b22:	89 85       	ldd	r24, Y+9	; 0x09
     b24:	80 68       	ori	r24, 0x80	; 128
     b26:	89 87       	std	Y+9, r24	; 0x09
     b28:	0c c0       	rjmp	.+24     	; 0xb42 <Menu_Start+0xcc>
     b2a:	81 e0       	ldi	r24, 0x01	; 1
     b2c:	88 87       	std	Y+8, r24	; 0x08
     b2e:	01 c0       	rjmp	.+2      	; 0xb32 <Menu_Start+0xbc>
     b30:	18 86       	std	Y+8, r1	; 0x08
     b32:	8f ef       	ldi	r24, 0xFF	; 255
     b34:	8e 83       	std	Y+6, r24	; 0x06
     b36:	05 c0       	rjmp	.+10     	; 0xb42 <Menu_Start+0xcc>
     b38:	41 e0       	ldi	r20, 0x01	; 1
     b3a:	64 2f       	mov	r22, r20
     b3c:	ce 01       	movw	r24, r28
     b3e:	0e 94 df 03 	call	0x7be <Menu_Jump>
     b42:	df 91       	pop	r29
     b44:	cf 91       	pop	r28
     b46:	1f 91       	pop	r17
     b48:	0f 91       	pop	r16
     b4a:	08 95       	ret

00000b4c <Menu_Entry>:
     b4c:	fc 01       	movw	r30, r24
     b4e:	80 85       	ldd	r24, Z+8	; 0x08
     b50:	81 50       	subi	r24, 0x01	; 1
     b52:	80 87       	std	Z+8, r24	; 0x08
     b54:	8f 3f       	cpi	r24, 0xFF	; 255
     b56:	09 f0       	breq	.+2      	; 0xb5a <Menu_Entry+0xe>
     b58:	41 c0       	rjmp	.+130    	; 0xbdc <Menu_Entry+0x90>
     b5a:	e3 57       	subi	r30, 0x73	; 115
     b5c:	ff 4f       	sbci	r31, 0xFF	; 255
     b5e:	80 81       	ld	r24, Z
     b60:	ed 58       	subi	r30, 0x8D	; 141
     b62:	f0 40       	sbci	r31, 0x00	; 0
     b64:	88 23       	and	r24, r24
     b66:	19 f4       	brne	.+6      	; 0xb6e <Menu_Entry+0x22>
     b68:	81 85       	ldd	r24, Z+9	; 0x09
     b6a:	86 fd       	sbrc	r24, 6
     b6c:	37 c0       	rjmp	.+110    	; 0xbdc <Menu_Entry+0x90>
     b6e:	85 81       	ldd	r24, Z+5	; 0x05
     b70:	99 27       	eor	r25, r25
     b72:	81 30       	cpi	r24, 0x01	; 1
     b74:	91 05       	cpc	r25, r1
     b76:	69 f0       	breq	.+26     	; 0xb92 <Menu_Entry+0x46>
     b78:	82 30       	cpi	r24, 0x02	; 2
     b7a:	91 05       	cpc	r25, r1
     b7c:	1c f4       	brge	.+6      	; 0xb84 <Menu_Entry+0x38>
     b7e:	89 2b       	or	r24, r25
     b80:	21 f0       	breq	.+8      	; 0xb8a <Menu_Entry+0x3e>
     b82:	08 95       	ret
     b84:	02 97       	sbiw	r24, 0x02	; 2
     b86:	49 f0       	breq	.+18     	; 0xb9a <Menu_Entry+0x4e>
     b88:	08 95       	ret
     b8a:	cf 01       	movw	r24, r30
     b8c:	0e 94 3b 05 	call	0xa76 <Menu_Start>
     b90:	08 95       	ret
     b92:	cf 01       	movw	r24, r30
     b94:	0e 94 02 04 	call	0x804 <Menu_Class>
     b98:	08 95       	ret
     b9a:	84 81       	ldd	r24, Z+4	; 0x04
     b9c:	99 27       	eor	r25, r25
     b9e:	83 30       	cpi	r24, 0x03	; 3
     ba0:	91 05       	cpc	r25, r1
     ba2:	a9 f0       	breq	.+42     	; 0xbce <Menu_Entry+0x82>
     ba4:	84 30       	cpi	r24, 0x04	; 4
     ba6:	91 05       	cpc	r25, r1
     ba8:	34 f4       	brge	.+12     	; 0xbb6 <Menu_Entry+0x6a>
     baa:	81 30       	cpi	r24, 0x01	; 1
     bac:	91 05       	cpc	r25, r1
     bae:	39 f0       	breq	.+14     	; 0xbbe <Menu_Entry+0x72>
     bb0:	02 97       	sbiw	r24, 0x02	; 2
     bb2:	49 f0       	breq	.+18     	; 0xbc6 <Menu_Entry+0x7a>
     bb4:	08 95       	ret
     bb6:	05 97       	sbiw	r24, 0x05	; 5
     bb8:	05 97       	sbiw	r24, 0x05	; 5
     bba:	80 f4       	brcc	.+32     	; 0xbdc <Menu_Entry+0x90>
     bbc:	0c c0       	rjmp	.+24     	; 0xbd6 <Menu_Entry+0x8a>
     bbe:	cf 01       	movw	r24, r30
     bc0:	0e 94 91 06 	call	0xd22 <Li_Battery_Function>
     bc4:	08 95       	ret
     bc6:	cf 01       	movw	r24, r30
     bc8:	0e 94 58 0d 	call	0x1ab0 <Ni_Battery_Function>
     bcc:	08 95       	ret
     bce:	cf 01       	movw	r24, r30
     bd0:	0e 94 7c 11 	call	0x22f8 <Pb_Battery_Function>
     bd4:	08 95       	ret
     bd6:	cf 01       	movw	r24, r30
     bd8:	0e 94 51 1b 	call	0x36a2 <PMU_Out>
     bdc:	08 95       	ret

00000bde <Bubble_Sort>:
	unsigned char buf = 0;

	while ( --n )
	{
	   for ( i = 0; i < n; i++)
     bde:	61 50       	subi	r22, 0x01	; 1
     be0:	79 f0       	breq	.+30     	; 0xc00 <Bubble_Sort+0x22>
     be2:	40 e0       	ldi	r20, 0x00	; 0
     be4:	46 17       	cp	r20, r22
     be6:	d8 f7       	brcc	.-10     	; 0xbde <Bubble_Sort>
     be8:	fc 01       	movw	r30, r24
	      if ( *( p + i) > *( p + i + 1 ))
     bea:	30 81       	ld	r19, Z
     bec:	21 81       	ldd	r18, Z+1	; 0x01
     bee:	23 17       	cp	r18, r19
     bf0:	10 f4       	brcc	.+4      	; 0xbf6 <Bubble_Sort+0x18>
		  {
		     buf = *( p + i );
			 *( p + i) = *( p + i + 1 );
     bf2:	20 83       	st	Z, r18
			 *( p + i +1 ) = buf;
     bf4:	31 83       	std	Z+1, r19	; 0x01
     bf6:	4f 5f       	subi	r20, 0xFF	; 255
     bf8:	31 96       	adiw	r30, 0x01	; 1
     bfa:	46 17       	cp	r20, r22
     bfc:	b0 f3       	brcs	.-20     	; 0xbea <Bubble_Sort+0xc>
     bfe:	ef cf       	rjmp	.-34     	; 0xbde <Bubble_Sort>
     c00:	08 95       	ret

00000c02 <Data_Average>:
		  }
    }
}
//-----------------------------------------------------------------------------
// Math Data Average Rountine
//-----------------------------------------------------------------------------
unsigned char Data_Average ( unsigned char * buf, unsigned char n )
{
     c02:	ef 92       	push	r14
     c04:	ff 92       	push	r15
     c06:	0f 93       	push	r16
     c08:	1f 93       	push	r17
     c0a:	cf 93       	push	r28
     c0c:	df 93       	push	r29
     c0e:	ec 01       	movw	r28, r24
     c10:	16 2f       	mov	r17, r22
    unsigned char i   = 0;
     c12:	00 e0       	ldi	r16, 0x00	; 0
    unsigned int  sum = 0;
     c14:	ee 24       	eor	r14, r14
     c16:	ff 24       	eor	r15, r15

	Bubble_Sort ( buf, n );
     c18:	0e 94 ef 05 	call	0xbde <Bubble_Sort>
	buf[0] = buf[1];
     c1c:	89 81       	ldd	r24, Y+1	; 0x01
     c1e:	88 83       	st	Y, r24
	buf[n-1] = buf[n-2];
     c20:	61 2f       	mov	r22, r17
     c22:	77 27       	eor	r23, r23
     c24:	fe 01       	movw	r30, r28
     c26:	e6 0f       	add	r30, r22
     c28:	f7 1f       	adc	r31, r23
     c2a:	32 97       	sbiw	r30, 0x02	; 2
     c2c:	80 81       	ld	r24, Z
     c2e:	32 96       	adiw	r30, 0x02	; 2
     c30:	82 93       	st	-Z, r24
	for ( ; i < n; i++ ) sum += buf[i];	
     c32:	01 17       	cp	r16, r17
     c34:	38 f4       	brcc	.+14     	; 0xc44 <Data_Average+0x42>
     c36:	fe 01       	movw	r30, r28
     c38:	81 91       	ld	r24, Z+
     c3a:	e8 0e       	add	r14, r24
     c3c:	f1 1c       	adc	r15, r1
     c3e:	0f 5f       	subi	r16, 0xFF	; 255
     c40:	01 17       	cp	r16, r17
     c42:	d0 f3       	brcs	.-12     	; 0xc38 <Data_Average+0x36>
	return (unsigned char)( sum / n );
     c44:	c7 01       	movw	r24, r14
     c46:	0e 94 43 20 	call	0x4086 <__udivmodhi4>
     c4a:	cb 01       	movw	r24, r22
}
     c4c:	99 27       	eor	r25, r25
     c4e:	df 91       	pop	r29
     c50:	cf 91       	pop	r28
     c52:	1f 91       	pop	r17
     c54:	0f 91       	pop	r16
     c56:	ff 90       	pop	r15
     c58:	ef 90       	pop	r14
     c5a:	08 95       	ret

00000c5c <FIFO_Clear>:
//-----------------------------------------------------------------------------
// FIFO Clear Zero Rountine
//-----------------------------------------------------------------------------
unsigned char FIFO_Clear ( unsigned char * FIFO, unsigned char Len )
{
	while ( Len ) { FIFO[Len] = 0; Len--; } return Len;
     c5c:	66 23       	and	r22, r22
     c5e:	31 f0       	breq	.+12     	; 0xc6c <FIFO_Clear+0x10>
     c60:	fc 01       	movw	r30, r24
     c62:	e6 0f       	add	r30, r22
     c64:	f1 1d       	adc	r31, r1
     c66:	10 82       	st	Z, r1
     c68:	61 50       	subi	r22, 0x01	; 1
     c6a:	f8 cf       	rjmp	.-16     	; 0xc5c <FIFO_Clear>
}
     c6c:	86 2f       	mov	r24, r22
     c6e:	99 27       	eor	r25, r25
     c70:	08 95       	ret

00000c72 <FIFO_Press_In>:
//-----------------------------------------------------------------------------
// FIFO Press In Rountine
//-----------------------------------------------------------------------------
unsigned char FIFO_Press_In ( unsigned char * FIFO, unsigned char Len, unsigned char Data )
{
     c72:	26 2f       	mov	r18, r22
	FIFO[Len] = Data; return ++Len;
     c74:	fc 01       	movw	r30, r24
     c76:	e6 0f       	add	r30, r22
     c78:	f1 1d       	adc	r31, r1
     c7a:	40 83       	st	Z, r20
     c7c:	2f 5f       	subi	r18, 0xFF	; 255
}
     c7e:	82 2f       	mov	r24, r18
     c80:	99 27       	eor	r25, r25
     c82:	08 95       	ret

00000c84 <FIFO_Pop>:
//-----------------------------------------------------------------------------
// FIFO Pop Out Rountine
//-----------------------------------------------------------------------------
unsigned char FIFO_Pop ( unsigned char * FIFO, unsigned char Len )
{
     c84:	fc 01       	movw	r30, r24
	unsigned char i = 0;
     c86:	90 e0       	ldi	r25, 0x00	; 0

	if ( --Len == 0 ) FIFO[0] = 0;
     c88:	61 50       	subi	r22, 0x01	; 1
     c8a:	11 f4       	brne	.+4      	; 0xc90 <FIFO_Pop+0xc>
     c8c:	60 83       	st	Z, r22
     c8e:	08 c0       	rjmp	.+16     	; 0xca0 <FIFO_Pop+0x1c>
	else 
		for ( ; i < Len; i++ ) 
     c90:	96 17       	cp	r25, r22
     c92:	30 f4       	brcc	.+12     	; 0xca0 <FIFO_Pop+0x1c>
		{
			FIFO[i] = FIFO[i + 1]; 
     c94:	81 81       	ldd	r24, Z+1	; 0x01
     c96:	80 83       	st	Z, r24
			FIFO[i + 1] = 0;
     c98:	11 82       	std	Z+1, r1	; 0x01
     c9a:	9f 5f       	subi	r25, 0xFF	; 255
     c9c:	31 96       	adiw	r30, 0x01	; 1
     c9e:	f8 cf       	rjmp	.-16     	; 0xc90 <FIFO_Pop+0xc>
		}
	return Len;
}
     ca0:	86 2f       	mov	r24, r22
     ca2:	99 27       	eor	r25, r25
     ca4:	08 95       	ret

00000ca6 <CPU_Initial>:
// CPU Initial Rountine
//-----------------------------------------------------------------------------
void CPU_Initial ( void )
{
	Port_Initial;
     ca6:	90 9a       	sbi	0x12, 0	; 18
     ca8:	88 9a       	sbi	0x11, 0	; 17
     caa:	8c 9a       	sbi	0x11, 4	; 17
     cac:	85 b3       	in	r24, 0x15	; 21
     cae:	83 6c       	ori	r24, 0xC3	; 195
     cb0:	85 bb       	out	0x15, r24	; 21
     cb2:	84 b3       	in	r24, 0x14	; 20
     cb4:	8c 73       	andi	r24, 0x3C	; 60
     cb6:	84 bb       	out	0x14, r24	; 20
	Timer0_Initial ();
     cb8:	0e 94 12 02 	call	0x424 <Timer0_Initial>
	DBus_Initial ();
     cbc:	0e 94 18 01 	call	0x230 <DBus_Initial>
	ADC_Initial ();
     cc0:	0e 94 d0 00 	call	0x1a0 <ADC_Initial>
	Global_Interrupt_Enable;
     cc4:	8f b7       	in	r24, 0x3f	; 63
     cc6:	80 68       	ori	r24, 0x80	; 128
     cc8:	8f bf       	out	0x3f, r24	; 63
     cca:	08 95       	ret

00000ccc <memcopy>:
//-----------------------------------------------------------------------------
void memcopy (char * dest, char * sour, unsigned char len)
{
	unsigned char i;
	for ( i = 0; i < len; i++ )	dest[i] = sour[i];
     ccc:	20 e0       	ldi	r18, 0x00	; 0
     cce:	24 17       	cp	r18, r20
     cd0:	38 f4       	brcc	.+14     	; 0xce0 <memcopy+0x14>
     cd2:	dc 01       	movw	r26, r24
     cd4:	fb 01       	movw	r30, r22
     cd6:	81 91       	ld	r24, Z+
     cd8:	8d 93       	st	X+, r24
     cda:	2f 5f       	subi	r18, 0xFF	; 255
     cdc:	24 17       	cp	r18, r20
     cde:	d8 f3       	brcs	.-10     	; 0xcd6 <memcopy+0xa>
     ce0:	08 95       	ret

00000ce2 <memcset>:
}
//-----------------------------------------------------------------------------
// Memory Buffer Compare Routine
//-----------------------------------------------------------------------------
/*char memcomp (char * buf1, char * buf2, char len)
{
	char i;
	for ( i = 0; i < len; i++ )	if ( buf1[i] != buf2[i] ) return 1;
	return 0;
}
*/
//-----------------------------------------------------------------------------
// Memory Buffer Set Routine
//-----------------------------------------------------------------------------
void memcset (char * buf, char c, unsigned char len)
{
	unsigned char i;
	for ( i = 0; i < len; i++ )	buf[i] = c;
     ce2:	20 e0       	ldi	r18, 0x00	; 0
     ce4:	24 17       	cp	r18, r20
     ce6:	28 f4       	brcc	.+10     	; 0xcf2 <memcset+0x10>
     ce8:	fc 01       	movw	r30, r24
     cea:	61 93       	st	Z+, r22
     cec:	2f 5f       	subi	r18, 0xFF	; 255
     cee:	24 17       	cp	r18, r20
     cf0:	e0 f3       	brcs	.-8      	; 0xcea <memcset+0x8>
     cf2:	08 95       	ret

00000cf4 <Number_String>:
}
/*
//-----------------------------------------------------------------------------
// Buffer Make XOR Routine
//-----------------------------------------------------------------------------
char Buffer_XOR ( char * buf, char n )
{
	char xor = 0;
	while ( n-- ) xor ^= *buf++;
	return xor;
}
//-----------------------------------------------------------------------------
// Buffer Make Sum Routine
//-----------------------------------------------------------------------------
char Buffer_Sum ( char * buf, char n )
{
	char sum = 0;
	while ( n-- ) sum += * buf++;
	return sum;
}
//-----------------------------------------------------------------------------
// Memory Buffer all Zero Routine
//-----------------------------------------------------------------------------
char Buffer_is_Zero ( char * buf, char n )
{
	while ( n-- ) if ( *buf++ != 0 ) return 0;
	return 1;
}
*/
//-----------------------------------------------------------------------------
// Number to String Routine
//-----------------------------------------------------------------------------
char * Number_String ( char * p, char c )
{
     cf4:	fc 01       	movw	r30, r24
	if ( c < 10 )
     cf6:	6a 30       	cpi	r22, 0x0A	; 10
     cf8:	28 f4       	brcc	.+10     	; 0xd04 <Number_String+0x10>
	{
		*p = '0';
     cfa:	80 e3       	ldi	r24, 0x30	; 48
     cfc:	80 83       	st	Z, r24
		*(p+1) = '0' | c;
     cfe:	68 2b       	or	r22, r24
     d00:	61 83       	std	Z+1, r22	; 0x01
     d02:	0d c0       	rjmp	.+26     	; 0xd1e <Number_String+0x2a>
	}
	else if ( c < 100 )
     d04:	64 36       	cpi	r22, 0x64	; 100
     d06:	48 f4       	brcc	.+18     	; 0xd1a <Number_String+0x26>
	{
		*p = '1';
     d08:	81 e3       	ldi	r24, 0x31	; 49
     d0a:	80 83       	st	Z, r24
		*(p+1) = '0' | ( c / 10 );
     d0c:	86 2f       	mov	r24, r22
     d0e:	6a e0       	ldi	r22, 0x0A	; 10
     d10:	0e 94 37 20 	call	0x406e <__udivmodqi4>
     d14:	80 63       	ori	r24, 0x30	; 48
     d16:	81 83       	std	Z+1, r24	; 0x01
     d18:	02 c0       	rjmp	.+4      	; 0xd1e <Number_String+0x2a>
	}
	else
		p = 0;
     d1a:	e0 e0       	ldi	r30, 0x00	; 0
     d1c:	f0 e0       	ldi	r31, 0x00	; 0
	return p;
}
     d1e:	cf 01       	movw	r24, r30
     d20:	08 95       	ret

00000d22 <Li_Battery_Function>:
//-----------------------------------------------------------------------------
// Li Battery Function Rountine
//-----------------------------------------------------------------------------
void Li_Battery_Function ( PSTMSG p )
{
     d22:	6f 92       	push	r6
     d24:	7f 92       	push	r7
     d26:	8f 92       	push	r8
     d28:	9f 92       	push	r9
     d2a:	af 92       	push	r10
     d2c:	bf 92       	push	r11
     d2e:	cf 92       	push	r12
     d30:	df 92       	push	r13
     d32:	ef 92       	push	r14
     d34:	ff 92       	push	r15
     d36:	0f 93       	push	r16
     d38:	1f 93       	push	r17
     d3a:	cf 93       	push	r28
     d3c:	df 93       	push	r29
     d3e:	cd b7       	in	r28, 0x3d	; 61
     d40:	de b7       	in	r29, 0x3e	; 62
     d42:	a2 97       	sbiw	r28, 0x22	; 34
     d44:	0f b6       	in	r0, 0x3f	; 63
     d46:	f8 94       	cli
     d48:	de bf       	out	0x3e, r29	; 62
     d4a:	0f be       	out	0x3f, r0	; 63
     d4c:	cd bf       	out	0x3d, r28	; 61
     d4e:	5c 01       	movw	r10, r24
	char Line[COLUMN_MAX +1] = "";
     d50:	80 91 d9 01 	lds	r24, 0x01D9
     d54:	89 83       	std	Y+1, r24	; 0x01
     d56:	90 e1       	ldi	r25, 0x10	; 16
     d58:	b2 e0       	ldi	r27, 0x02	; 2
     d5a:	6b 2e       	mov	r6, r27
     d5c:	71 2c       	mov	r7, r1
     d5e:	6c 0e       	add	r6, r28
     d60:	7d 1e       	adc	r7, r29
     d62:	d3 01       	movw	r26, r6
     d64:	e9 2f       	mov	r30, r25
     d66:	1d 92       	st	X+, r1
     d68:	ea 95       	dec	r30
     d6a:	e9 f7       	brne	.-6      	; 0xd66 <Li_Battery_Function+0x44>
	char str [COLUMN_MAX +1] = "";
     d6c:	8a 8b       	std	Y+18, r24	; 0x12
     d6e:	fe 01       	movw	r30, r28
     d70:	73 96       	adiw	r30, 0x13	; 19
     d72:	11 92       	st	Z+, r1
     d74:	9a 95       	dec	r25
     d76:	e9 f7       	brne	.-6      	; 0xd72 <Li_Battery_Function+0x50>

	switch ( p->Menu.Layer )
     d78:	f5 01       	movw	r30, r10
     d7a:	85 81       	ldd	r24, Z+5	; 0x05
     d7c:	99 27       	eor	r25, r25
     d7e:	82 30       	cpi	r24, 0x02	; 2
     d80:	91 05       	cpc	r25, r1
     d82:	21 f0       	breq	.+8      	; 0xd8c <Li_Battery_Function+0x6a>
     d84:	03 97       	sbiw	r24, 0x03	; 3
     d86:	09 f4       	brne	.+2      	; 0xd8a <Li_Battery_Function+0x68>
     d88:	26 c2       	rjmp	.+1100   	; 0x11d6 <Li_Battery_Function+0x4b4>
     d8a:	7d c6       	rjmp	.+3322   	; 0x1a86 <Li_Battery_Function+0xd64>
	{
		case FUNCTION_LAYER:		
			if ( p->Menu.Key == OPEN )
     d8c:	f5 01       	movw	r30, r10
     d8e:	81 85       	ldd	r24, Z+9	; 0x09
     d90:	87 ff       	sbrs	r24, 7
     d92:	0c c0       	rjmp	.+24     	; 0xdac <Li_Battery_Function+0x8a>
			{
				Menu_Scroll ( p, 8 );
     d94:	68 e0       	ldi	r22, 0x08	; 8
     d96:	c5 01       	movw	r24, r10
     d98:	0e 94 e8 1a 	call	0x35d0 <Menu_Scroll>
				if (( p->Menu.Update == UNNEED ) && ( p->Menu.Sub == 0 ))
     d9c:	f5 01       	movw	r30, r10
     d9e:	91 85       	ldd	r25, Z+9	; 0x09
     da0:	96 ff       	sbrs	r25, 6
     da2:	04 c0       	rjmp	.+8      	; 0xdac <Li_Battery_Function+0x8a>
     da4:	87 81       	ldd	r24, Z+7	; 0x07
     da6:	88 23       	and	r24, r24
     da8:	09 f4       	brne	.+2      	; 0xdac <Li_Battery_Function+0x8a>
     daa:	a3 c2       	rjmp	.+1350   	; 0x12f2 <Li_Battery_Function+0x5d0>
				    { p->Menu.Update = NEED;  break; }
			} 
			else ;
			//p->Key.n = FIFO_Clear ((unsigned char *) p->Key.FIFO, p->Key.n );
			if ( p->Menu.Sub ) p->Menu.Update = NEED; 	
     dac:	f5 01       	movw	r30, r10
     dae:	87 81       	ldd	r24, Z+7	; 0x07
     db0:	91 85       	ldd	r25, Z+9	; 0x09
     db2:	88 23       	and	r24, r24
     db4:	11 f0       	breq	.+4      	; 0xdba <Li_Battery_Function+0x98>
     db6:	9f 7b       	andi	r25, 0xBF	; 191
     db8:	02 c0       	rjmp	.+4      	; 0xdbe <Li_Battery_Function+0x9c>
			else p->Menu.Update = UNNEED;
     dba:	90 64       	ori	r25, 0x40	; 64
     dbc:	f5 01       	movw	r30, r10
     dbe:	91 87       	std	Z+9, r25	; 0x09
			p->Menu.Key	= OPEN;
     dc0:	f5 01       	movw	r30, r10
     dc2:	81 85       	ldd	r24, Z+9	; 0x09
     dc4:	80 68       	ori	r24, 0x80	; 128
     dc6:	81 87       	std	Z+9, r24	; 0x09
			if	 	( p->Batt.Type == LIPO ) sprintf ( Line, "%s", "LiPo" );
     dc8:	82 85       	ldd	r24, Z+10	; 0x0a
     dca:	88 23       	and	r24, r24
     dcc:	21 f4       	brne	.+8      	; 0xdd6 <Li_Battery_Function+0xb4>
     dce:	85 e0       	ldi	r24, 0x05	; 5
     dd0:	aa ee       	ldi	r26, 0xEA	; 234
     dd2:	b1 e0       	ldi	r27, 0x01	; 1
     dd4:	0c c0       	rjmp	.+24     	; 0xdee <Li_Battery_Function+0xcc>
			else if	( p->Batt.Type == LIIO ) sprintf ( Line, "%s", "LiIo" );
     dd6:	81 30       	cpi	r24, 0x01	; 1
     dd8:	21 f4       	brne	.+8      	; 0xde2 <Li_Battery_Function+0xc0>
     dda:	85 e0       	ldi	r24, 0x05	; 5
     ddc:	af ee       	ldi	r26, 0xEF	; 239
     dde:	b1 e0       	ldi	r27, 0x01	; 1
     de0:	06 c0       	rjmp	.+12     	; 0xdee <Li_Battery_Function+0xcc>
			else if	( p->Batt.Type == LIFE ) sprintf ( Line, "%s", "LiFe" );
     de2:	82 30       	cpi	r24, 0x02	; 2
     de4:	09 f0       	breq	.+2      	; 0xde8 <Li_Battery_Function+0xc6>
     de6:	4f c6       	rjmp	.+3230   	; 0x1a86 <Li_Battery_Function+0xd64>
     de8:	85 e0       	ldi	r24, 0x05	; 5
     dea:	a4 ef       	ldi	r26, 0xF4	; 244
     dec:	b1 e0       	ldi	r27, 0x01	; 1
     dee:	fe 01       	movw	r30, r28
     df0:	31 96       	adiw	r30, 0x01	; 1
     df2:	0d 90       	ld	r0, X+
     df4:	01 92       	st	Z+, r0
     df6:	8a 95       	dec	r24
     df8:	e1 f7       	brne	.-8      	; 0xdf2 <Li_Battery_Function+0xd0>
			else return;
			Battery_Limit_Set ((PSTLIMIT) & p->Batt.Limit, p->Batt.Type );
     dfa:	f5 01       	movw	r30, r10
     dfc:	62 85       	ldd	r22, Z+10	; 0x0a
     dfe:	c5 01       	movw	r24, r10
     e00:	8c 96       	adiw	r24, 0x2c	; 44
     e02:	0e 94 4e 1a 	call	0x349c <Battery_Limit_Set>
			switch ( p->Menu.Num )
     e06:	f5 01       	movw	r30, r10
     e08:	86 81       	ldd	r24, Z+6	; 0x06
     e0a:	99 27       	eor	r25, r25
     e0c:	85 30       	cpi	r24, 0x05	; 5
     e0e:	91 05       	cpc	r25, r1
     e10:	09 f4       	brne	.+2      	; 0xe14 <Li_Battery_Function+0xf2>
     e12:	c1 c0       	rjmp	.+386    	; 0xf96 <Li_Battery_Function+0x274>
     e14:	86 30       	cpi	r24, 0x06	; 6
     e16:	91 05       	cpc	r25, r1
     e18:	94 f4       	brge	.+36     	; 0xe3e <Li_Battery_Function+0x11c>
     e1a:	82 30       	cpi	r24, 0x02	; 2
     e1c:	91 05       	cpc	r25, r1
     e1e:	09 f4       	brne	.+2      	; 0xe22 <Li_Battery_Function+0x100>
     e20:	45 c0       	rjmp	.+138    	; 0xeac <Li_Battery_Function+0x18a>
     e22:	83 30       	cpi	r24, 0x03	; 3
     e24:	91 05       	cpc	r25, r1
     e26:	1c f4       	brge	.+6      	; 0xe2e <Li_Battery_Function+0x10c>
     e28:	01 97       	sbiw	r24, 0x01	; 1
     e2a:	c9 f0       	breq	.+50     	; 0xe5e <Li_Battery_Function+0x13c>
     e2c:	2c c6       	rjmp	.+3160   	; 0x1a86 <Li_Battery_Function+0xd64>
     e2e:	83 30       	cpi	r24, 0x03	; 3
     e30:	91 05       	cpc	r25, r1
     e32:	09 f4       	brne	.+2      	; 0xe36 <Li_Battery_Function+0x114>
     e34:	62 c0       	rjmp	.+196    	; 0xefa <Li_Battery_Function+0x1d8>
     e36:	04 97       	sbiw	r24, 0x04	; 4
     e38:	09 f4       	brne	.+2      	; 0xe3c <Li_Battery_Function+0x11a>
     e3a:	86 c0       	rjmp	.+268    	; 0xf48 <Li_Battery_Function+0x226>
     e3c:	24 c6       	rjmp	.+3144   	; 0x1a86 <Li_Battery_Function+0xd64>
     e3e:	87 30       	cpi	r24, 0x07	; 7
     e40:	91 05       	cpc	r25, r1
     e42:	09 f4       	brne	.+2      	; 0xe46 <Li_Battery_Function+0x124>
     e44:	0a c1       	rjmp	.+532    	; 0x105a <Li_Battery_Function+0x338>
     e46:	87 30       	cpi	r24, 0x07	; 7
     e48:	91 05       	cpc	r25, r1
     e4a:	0c f4       	brge	.+2      	; 0xe4e <Li_Battery_Function+0x12c>
     e4c:	cb c0       	rjmp	.+406    	; 0xfe4 <Li_Battery_Function+0x2c2>
     e4e:	88 30       	cpi	r24, 0x08	; 8
     e50:	91 05       	cpc	r25, r1
     e52:	09 f4       	brne	.+2      	; 0xe56 <Li_Battery_Function+0x134>
     e54:	2b c1       	rjmp	.+598    	; 0x10ac <Li_Battery_Function+0x38a>
     e56:	09 97       	sbiw	r24, 0x09	; 9
     e58:	09 f4       	brne	.+2      	; 0xe5c <Li_Battery_Function+0x13a>
     e5a:	84 c1       	rjmp	.+776    	; 0x1164 <Li_Battery_Function+0x442>
     e5c:	14 c6       	rjmp	.+3112   	; 0x1a86 <Li_Battery_Function+0xd64>
			{
				case BOTTOM_NUM:
					sprintf ( Line + 4, "%12s", "BATTERY" );
     e5e:	89 ef       	ldi	r24, 0xF9	; 249
     e60:	91 e0       	ldi	r25, 0x01	; 1
     e62:	9f 93       	push	r25
     e64:	8f 93       	push	r24
     e66:	81 e0       	ldi	r24, 0x01	; 1
     e68:	92 e0       	ldi	r25, 0x02	; 2
     e6a:	9f 93       	push	r25
     e6c:	8f 93       	push	r24
     e6e:	ce 01       	movw	r24, r28
     e70:	05 96       	adiw	r24, 0x05	; 5
     e72:	9f 93       	push	r25
     e74:	8f 93       	push	r24
     e76:	0e 94 fe 1c 	call	0x39fc <sprintf>
					LCD_Update ( COL1, ROW1, Line );
     e7a:	ae 01       	movw	r20, r28
     e7c:	4f 5f       	subi	r20, 0xFF	; 255
     e7e:	5f 4f       	sbci	r21, 0xFF	; 255
     e80:	60 e0       	ldi	r22, 0x00	; 0
     e82:	86 2f       	mov	r24, r22
     e84:	0e 94 4a 03 	call	0x694 <LCD_Update>
					sprintf ( Line, "%s", "MEASRUEMAN" );
     e88:	ae 01       	movw	r20, r28
     e8a:	4f 5f       	subi	r20, 0xFF	; 255
     e8c:	5f 4f       	sbci	r21, 0xFF	; 255
     e8e:	8b e0       	ldi	r24, 0x0B	; 11
     e90:	26 e0       	ldi	r18, 0x06	; 6
     e92:	32 e0       	ldi	r19, 0x02	; 2
     e94:	da 01       	movw	r26, r20
     e96:	f9 01       	movw	r30, r18
     e98:	01 90       	ld	r0, Z+
     e9a:	0d 92       	st	X+, r0
     e9c:	8a 95       	dec	r24
     e9e:	e1 f7       	brne	.-8      	; 0xe98 <Li_Battery_Function+0x176>
					LCD_Update ( COL1, ROW2, Line );
     ea0:	61 e0       	ldi	r22, 0x01	; 1
     ea2:	80 e0       	ldi	r24, 0x00	; 0
     ea4:	0e 94 4a 03 	call	0x694 <LCD_Update>
					p->Batt.Mode = MEASRUEMAN;
     ea8:	81 e0       	ldi	r24, 0x01	; 1
     eaa:	fd c0       	rjmp	.+506    	; 0x10a6 <Li_Battery_Function+0x384>
					break;

				case 2:
					sprintf ( Line + 4, "%12s", "BATTERY" );
     eac:	89 ef       	ldi	r24, 0xF9	; 249
     eae:	91 e0       	ldi	r25, 0x01	; 1
     eb0:	9f 93       	push	r25
     eb2:	8f 93       	push	r24
     eb4:	81 e0       	ldi	r24, 0x01	; 1
     eb6:	92 e0       	ldi	r25, 0x02	; 2
     eb8:	9f 93       	push	r25
     eba:	8f 93       	push	r24
     ebc:	ce 01       	movw	r24, r28
     ebe:	05 96       	adiw	r24, 0x05	; 5
     ec0:	9f 93       	push	r25
     ec2:	8f 93       	push	r24
     ec4:	0e 94 fe 1c 	call	0x39fc <sprintf>
					LCD_Update ( COL1, ROW1, Line );
     ec8:	ae 01       	movw	r20, r28
     eca:	4f 5f       	subi	r20, 0xFF	; 255
     ecc:	5f 4f       	sbci	r21, 0xFF	; 255
     ece:	60 e0       	ldi	r22, 0x00	; 0
     ed0:	86 2f       	mov	r24, r22
     ed2:	0e 94 4a 03 	call	0x694 <LCD_Update>
					sprintf ( Line, "%s", "AUTO" );
     ed6:	ae 01       	movw	r20, r28
     ed8:	4f 5f       	subi	r20, 0xFF	; 255
     eda:	5f 4f       	sbci	r21, 0xFF	; 255
     edc:	85 e0       	ldi	r24, 0x05	; 5
     ede:	21 e1       	ldi	r18, 0x11	; 17
     ee0:	32 e0       	ldi	r19, 0x02	; 2
     ee2:	da 01       	movw	r26, r20
     ee4:	f9 01       	movw	r30, r18
     ee6:	01 90       	ld	r0, Z+
     ee8:	0d 92       	st	X+, r0
     eea:	8a 95       	dec	r24
     eec:	e1 f7       	brne	.-8      	; 0xee6 <Li_Battery_Function+0x1c4>
					LCD_Update ( COL1, ROW2, Line );
     eee:	61 e0       	ldi	r22, 0x01	; 1
     ef0:	80 e0       	ldi	r24, 0x00	; 0
     ef2:	0e 94 4a 03 	call	0x694 <LCD_Update>
					p->Batt.Mode = AUTO_BALANCE;
     ef6:	82 e0       	ldi	r24, 0x02	; 2
     ef8:	d6 c0       	rjmp	.+428    	; 0x10a6 <Li_Battery_Function+0x384>
					break;

				case 3:
					sprintf ( Line + 4, "%12s", "BALANCE CHG" );
     efa:	86 e1       	ldi	r24, 0x16	; 22
     efc:	92 e0       	ldi	r25, 0x02	; 2
     efe:	9f 93       	push	r25
     f00:	8f 93       	push	r24
     f02:	81 e0       	ldi	r24, 0x01	; 1
     f04:	92 e0       	ldi	r25, 0x02	; 2
     f06:	9f 93       	push	r25
     f08:	8f 93       	push	r24
     f0a:	ce 01       	movw	r24, r28
     f0c:	05 96       	adiw	r24, 0x05	; 5
     f0e:	9f 93       	push	r25
     f10:	8f 93       	push	r24
     f12:	0e 94 fe 1c 	call	0x39fc <sprintf>
					LCD_Update ( COL1, ROW1, Line );
     f16:	ae 01       	movw	r20, r28
     f18:	4f 5f       	subi	r20, 0xFF	; 255
     f1a:	5f 4f       	sbci	r21, 0xFF	; 255
     f1c:	60 e0       	ldi	r22, 0x00	; 0
     f1e:	86 2f       	mov	r24, r22
     f20:	0e 94 4a 03 	call	0x694 <LCD_Update>
					Capacity_ICA_Set ( p, Line, str );
     f24:	ae 01       	movw	r20, r28
     f26:	4e 5e       	subi	r20, 0xEE	; 238
     f28:	5f 4f       	sbci	r21, 0xFF	; 255
     f2a:	be 01       	movw	r22, r28
     f2c:	6f 5f       	subi	r22, 0xFF	; 255
     f2e:	7f 4f       	sbci	r23, 0xFF	; 255
     f30:	c5 01       	movw	r24, r10
     f32:	0e 94 f0 18 	call	0x31e0 <Capacity_ICA_Set>
					LCD_Update ( COL1, ROW2, Line );
     f36:	ae 01       	movw	r20, r28
     f38:	4f 5f       	subi	r20, 0xFF	; 255
     f3a:	5f 4f       	sbci	r21, 0xFF	; 255
     f3c:	61 e0       	ldi	r22, 0x01	; 1
     f3e:	80 e0       	ldi	r24, 0x00	; 0
     f40:	0e 94 4a 03 	call	0x694 <LCD_Update>
					p->Batt.Mode = BALANCE_CHARGE;
     f44:	83 e0       	ldi	r24, 0x03	; 3
     f46:	af c0       	rjmp	.+350    	; 0x10a6 <Li_Battery_Function+0x384>
					break;

				case 4:
					sprintf ( Line + 4, "%12s", "CHARGE" );
     f48:	82 e2       	ldi	r24, 0x22	; 34
     f4a:	92 e0       	ldi	r25, 0x02	; 2
     f4c:	9f 93       	push	r25
     f4e:	8f 93       	push	r24
     f50:	81 e0       	ldi	r24, 0x01	; 1
     f52:	92 e0       	ldi	r25, 0x02	; 2
     f54:	9f 93       	push	r25
     f56:	8f 93       	push	r24
     f58:	ce 01       	movw	r24, r28
     f5a:	05 96       	adiw	r24, 0x05	; 5
     f5c:	9f 93       	push	r25
     f5e:	8f 93       	push	r24
     f60:	0e 94 fe 1c 	call	0x39fc <sprintf>
					LCD_Update ( COL1, ROW1, Line );
     f64:	ae 01       	movw	r20, r28
     f66:	4f 5f       	subi	r20, 0xFF	; 255
     f68:	5f 4f       	sbci	r21, 0xFF	; 255
     f6a:	60 e0       	ldi	r22, 0x00	; 0
     f6c:	86 2f       	mov	r24, r22
     f6e:	0e 94 4a 03 	call	0x694 <LCD_Update>
					ImA_VoltSerial_Set ( p, Line, str );
     f72:	ae 01       	movw	r20, r28
     f74:	4e 5e       	subi	r20, 0xEE	; 238
     f76:	5f 4f       	sbci	r21, 0xFF	; 255
     f78:	be 01       	movw	r22, r28
     f7a:	6f 5f       	subi	r22, 0xFF	; 255
     f7c:	7f 4f       	sbci	r23, 0xFF	; 255
     f7e:	c5 01       	movw	r24, r10
     f80:	0e 94 cd 17 	call	0x2f9a <ImA_VoltSerial_Set>
					LCD_Update ( COL1, ROW2, Line );
     f84:	ae 01       	movw	r20, r28
     f86:	4f 5f       	subi	r20, 0xFF	; 255
     f88:	5f 4f       	sbci	r21, 0xFF	; 255
     f8a:	61 e0       	ldi	r22, 0x01	; 1
     f8c:	80 e0       	ldi	r24, 0x00	; 0
     f8e:	0e 94 4a 03 	call	0x694 <LCD_Update>
					p->Batt.Mode = CHARGE;
     f92:	84 e0       	ldi	r24, 0x04	; 4
     f94:	88 c0       	rjmp	.+272    	; 0x10a6 <Li_Battery_Function+0x384>
					break;

				case 5:
					sprintf ( Line + 4, "%12s", "FAST CHG" );
     f96:	89 e2       	ldi	r24, 0x29	; 41
     f98:	92 e0       	ldi	r25, 0x02	; 2
     f9a:	9f 93       	push	r25
     f9c:	8f 93       	push	r24
     f9e:	81 e0       	ldi	r24, 0x01	; 1
     fa0:	92 e0       	ldi	r25, 0x02	; 2
     fa2:	9f 93       	push	r25
     fa4:	8f 93       	push	r24
     fa6:	ce 01       	movw	r24, r28
     fa8:	05 96       	adiw	r24, 0x05	; 5
     faa:	9f 93       	push	r25
     fac:	8f 93       	push	r24
     fae:	0e 94 fe 1c 	call	0x39fc <sprintf>
					LCD_Update ( COL1, ROW1, Line );
     fb2:	ae 01       	movw	r20, r28
     fb4:	4f 5f       	subi	r20, 0xFF	; 255
     fb6:	5f 4f       	sbci	r21, 0xFF	; 255
     fb8:	60 e0       	ldi	r22, 0x00	; 0
     fba:	86 2f       	mov	r24, r22
     fbc:	0e 94 4a 03 	call	0x694 <LCD_Update>
					ImA_VoltSerial_Set ( p, Line, str );
     fc0:	ae 01       	movw	r20, r28
     fc2:	4e 5e       	subi	r20, 0xEE	; 238
     fc4:	5f 4f       	sbci	r21, 0xFF	; 255
     fc6:	be 01       	movw	r22, r28
     fc8:	6f 5f       	subi	r22, 0xFF	; 255
     fca:	7f 4f       	sbci	r23, 0xFF	; 255
     fcc:	c5 01       	movw	r24, r10
     fce:	0e 94 cd 17 	call	0x2f9a <ImA_VoltSerial_Set>
					LCD_Update ( COL1, ROW2, Line );
     fd2:	ae 01       	movw	r20, r28
     fd4:	4f 5f       	subi	r20, 0xFF	; 255
     fd6:	5f 4f       	sbci	r21, 0xFF	; 255
     fd8:	61 e0       	ldi	r22, 0x01	; 1
     fda:	80 e0       	ldi	r24, 0x00	; 0
     fdc:	0e 94 4a 03 	call	0x694 <LCD_Update>
					p->Batt.Mode = FAST_CHARGE;
     fe0:	85 e0       	ldi	r24, 0x05	; 5
     fe2:	61 c0       	rjmp	.+194    	; 0x10a6 <Li_Battery_Function+0x384>
					break;

				case 6:
					sprintf ( Line + 4, "%5s", "DCHG" );
     fe4:	82 e3       	ldi	r24, 0x32	; 50
     fe6:	92 e0       	ldi	r25, 0x02	; 2
     fe8:	9f 93       	push	r25
     fea:	8f 93       	push	r24
     fec:	87 e3       	ldi	r24, 0x37	; 55
     fee:	92 e0       	ldi	r25, 0x02	; 2
     ff0:	9f 93       	push	r25
     ff2:	8f 93       	push	r24
     ff4:	ce 01       	movw	r24, r28
     ff6:	05 96       	adiw	r24, 0x05	; 5
     ff8:	9f 93       	push	r25
     ffa:	8f 93       	push	r24
     ffc:	0e 94 fe 1c 	call	0x39fc <sprintf>
					sprintf ( Line + 9, "%7s", Get_Item ( p, str, VOLT ));
    1000:	8e 01       	movw	r16, r28
    1002:	0e 5e       	subi	r16, 0xEE	; 238
    1004:	1f 4f       	sbci	r17, 0xFF	; 255
    1006:	45 e0       	ldi	r20, 0x05	; 5
    1008:	b8 01       	movw	r22, r16
    100a:	c5 01       	movw	r24, r10
    100c:	0e 94 84 13 	call	0x2708 <Get_Item>
    1010:	9f 93       	push	r25
    1012:	8f 93       	push	r24
    1014:	8b e3       	ldi	r24, 0x3B	; 59
    1016:	92 e0       	ldi	r25, 0x02	; 2
    1018:	9f 93       	push	r25
    101a:	8f 93       	push	r24
    101c:	ce 01       	movw	r24, r28
    101e:	0a 96       	adiw	r24, 0x0a	; 10
    1020:	9f 93       	push	r25
    1022:	8f 93       	push	r24
    1024:	0e 94 fe 1c 	call	0x39fc <sprintf>
					LCD_Update ( COL1, ROW1, Line );
    1028:	ae 01       	movw	r20, r28
    102a:	4f 5f       	subi	r20, 0xFF	; 255
    102c:	5f 4f       	sbci	r21, 0xFF	; 255
    102e:	60 e0       	ldi	r22, 0x00	; 0
    1030:	86 2f       	mov	r24, r22
    1032:	0e 94 4a 03 	call	0x694 <LCD_Update>
					ImA_VoltSerial_Set ( p, Line, str );
    1036:	a8 01       	movw	r20, r16
    1038:	be 01       	movw	r22, r28
    103a:	6f 5f       	subi	r22, 0xFF	; 255
    103c:	7f 4f       	sbci	r23, 0xFF	; 255
    103e:	c5 01       	movw	r24, r10
    1040:	0e 94 cd 17 	call	0x2f9a <ImA_VoltSerial_Set>
					LCD_Update ( COL1, ROW2, Line );
    1044:	ae 01       	movw	r20, r28
    1046:	4f 5f       	subi	r20, 0xFF	; 255
    1048:	5f 4f       	sbci	r21, 0xFF	; 255
    104a:	61 e0       	ldi	r22, 0x01	; 1
    104c:	80 e0       	ldi	r24, 0x00	; 0
    104e:	0e 94 4a 03 	call	0x694 <LCD_Update>
					p->Batt.Mode = DISCHARGE;
    1052:	86 e0       	ldi	r24, 0x06	; 6
    1054:	f5 01       	movw	r30, r10
    1056:	83 87       	std	Z+11, r24	; 0x0b
    1058:	b9 c0       	rjmp	.+370    	; 0x11cc <Li_Battery_Function+0x4aa>
					break;

				case 7:
					sprintf ( Line + 4, "%12s", "STORAGE" );
    105a:	8f e3       	ldi	r24, 0x3F	; 63
    105c:	92 e0       	ldi	r25, 0x02	; 2
    105e:	9f 93       	push	r25
    1060:	8f 93       	push	r24
    1062:	81 e0       	ldi	r24, 0x01	; 1
    1064:	92 e0       	ldi	r25, 0x02	; 2
    1066:	9f 93       	push	r25
    1068:	8f 93       	push	r24
    106a:	ce 01       	movw	r24, r28
    106c:	05 96       	adiw	r24, 0x05	; 5
    106e:	9f 93       	push	r25
    1070:	8f 93       	push	r24
    1072:	0e 94 fe 1c 	call	0x39fc <sprintf>
					LCD_Update ( COL1, ROW1, Line );
    1076:	ae 01       	movw	r20, r28
    1078:	4f 5f       	subi	r20, 0xFF	; 255
    107a:	5f 4f       	sbci	r21, 0xFF	; 255
    107c:	60 e0       	ldi	r22, 0x00	; 0
    107e:	86 2f       	mov	r24, r22
    1080:	0e 94 4a 03 	call	0x694 <LCD_Update>
					Capacity_ICA_Set ( p, Line, str );
    1084:	ae 01       	movw	r20, r28
    1086:	4e 5e       	subi	r20, 0xEE	; 238
    1088:	5f 4f       	sbci	r21, 0xFF	; 255
    108a:	be 01       	movw	r22, r28
    108c:	6f 5f       	subi	r22, 0xFF	; 255
    108e:	7f 4f       	sbci	r23, 0xFF	; 255
    1090:	c5 01       	movw	r24, r10
    1092:	0e 94 f0 18 	call	0x31e0 <Capacity_ICA_Set>
					LCD_Update ( COL1, ROW2, Line );
    1096:	ae 01       	movw	r20, r28
    1098:	4f 5f       	subi	r20, 0xFF	; 255
    109a:	5f 4f       	sbci	r21, 0xFF	; 255
    109c:	61 e0       	ldi	r22, 0x01	; 1
    109e:	80 e0       	ldi	r24, 0x00	; 0
    10a0:	0e 94 4a 03 	call	0x694 <LCD_Update>
					p->Batt.Mode = STORAGE;
    10a4:	87 e0       	ldi	r24, 0x07	; 7
    10a6:	f5 01       	movw	r30, r10
    10a8:	83 87       	std	Z+11, r24	; 0x0b
    10aa:	bf c4       	rjmp	.+2430   	; 0x1a2a <Li_Battery_Function+0xd08>
					break;

				case 8:
					sprintf ( Line + 4,  "%6s", "CYCLE" );
    10ac:	87 e4       	ldi	r24, 0x47	; 71
    10ae:	92 e0       	ldi	r25, 0x02	; 2
    10b0:	9f 93       	push	r25
    10b2:	8f 93       	push	r24
    10b4:	8d e4       	ldi	r24, 0x4D	; 77
    10b6:	92 e0       	ldi	r25, 0x02	; 2
    10b8:	9f 93       	push	r25
    10ba:	8f 93       	push	r24
    10bc:	ce 01       	movw	r24, r28
    10be:	05 96       	adiw	r24, 0x05	; 5
    10c0:	9f 93       	push	r25
    10c2:	8f 93       	push	r24
    10c4:	0e 94 fe 1c 	call	0x39fc <sprintf>
					sprintf ( Line + 10, "%6d", ( p->Batt.Cycle.Form & TIMES )+1 );
    10c8:	f5 01       	movw	r30, r10
    10ca:	84 89       	ldd	r24, Z+20	; 0x14
    10cc:	99 27       	eor	r25, r25
    10ce:	87 70       	andi	r24, 0x07	; 7
    10d0:	90 70       	andi	r25, 0x00	; 0
    10d2:	01 96       	adiw	r24, 0x01	; 1
    10d4:	9f 93       	push	r25
    10d6:	8f 93       	push	r24
    10d8:	81 e5       	ldi	r24, 0x51	; 81
    10da:	92 e0       	ldi	r25, 0x02	; 2
    10dc:	9f 93       	push	r25
    10de:	8f 93       	push	r24
    10e0:	ce 01       	movw	r24, r28
    10e2:	0b 96       	adiw	r24, 0x0b	; 11
    10e4:	9f 93       	push	r25
    10e6:	8f 93       	push	r24
    10e8:	0e 94 fe 1c 	call	0x39fc <sprintf>
					Cycle_Items_Set ( p, Line, str );
    10ec:	8e 01       	movw	r16, r28
    10ee:	0e 5e       	subi	r16, 0xEE	; 238
    10f0:	1f 4f       	sbci	r17, 0xFF	; 255
    10f2:	a8 01       	movw	r20, r16
    10f4:	be 01       	movw	r22, r28
    10f6:	6f 5f       	subi	r22, 0xFF	; 255
    10f8:	7f 4f       	sbci	r23, 0xFF	; 255
    10fa:	c5 01       	movw	r24, r10
    10fc:	0e 94 c1 19 	call	0x3382 <Cycle_Items_Set>
					LCD_Update ( COL1, ROW1, Line );
    1100:	ae 01       	movw	r20, r28
    1102:	4f 5f       	subi	r20, 0xFF	; 255
    1104:	5f 4f       	sbci	r21, 0xFF	; 255
    1106:	60 e0       	ldi	r22, 0x00	; 0
    1108:	86 2f       	mov	r24, r22
    110a:	0e 94 4a 03 	call	0x694 <LCD_Update>
					if ( p->Batt.Cycle.Form & D_C )
    110e:	f5 01       	movw	r30, r10
    1110:	84 89       	ldd	r24, Z+20	; 0x14
    1112:	2d b7       	in	r18, 0x3d	; 61
    1114:	3e b7       	in	r19, 0x3e	; 62
    1116:	24 5f       	subi	r18, 0xF4	; 244
    1118:	3f 4f       	sbci	r19, 0xFF	; 255
    111a:	0f b6       	in	r0, 0x3f	; 63
    111c:	f8 94       	cli
    111e:	3e bf       	out	0x3e, r19	; 62
    1120:	0f be       	out	0x3f, r0	; 63
    1122:	2d bf       	out	0x3d, r18	; 61
    1124:	87 ff       	sbrs	r24, 7
    1126:	02 c0       	rjmp	.+4      	; 0x112c <Li_Battery_Function+0x40a>
						 sprintf ( Line, "%s", Get_Item ( p, str, CYCLE_DISCHARGE ));
    1128:	48 e0       	ldi	r20, 0x08	; 8
    112a:	01 c0       	rjmp	.+2      	; 0x112e <Li_Battery_Function+0x40c>
					else sprintf ( Line, "%s", Get_Item ( p, str, CYCLE_CHARGE ));
    112c:	47 e0       	ldi	r20, 0x07	; 7
    112e:	b8 01       	movw	r22, r16
    1130:	c5 01       	movw	r24, r10
    1132:	0e 94 84 13 	call	0x2708 <Get_Item>
    1136:	bc 01       	movw	r22, r24
    1138:	ce 01       	movw	r24, r28
    113a:	01 96       	adiw	r24, 0x01	; 1
    113c:	0e 94 f7 1c 	call	0x39ee <strcpy>
					Cycle_Items_Set ( p, Line, str );
    1140:	a8 01       	movw	r20, r16
    1142:	be 01       	movw	r22, r28
    1144:	6f 5f       	subi	r22, 0xFF	; 255
    1146:	7f 4f       	sbci	r23, 0xFF	; 255
    1148:	c5 01       	movw	r24, r10
    114a:	0e 94 c1 19 	call	0x3382 <Cycle_Items_Set>
					LCD_Update ( COL1, ROW2, Line );
    114e:	ae 01       	movw	r20, r28
    1150:	4f 5f       	subi	r20, 0xFF	; 255
    1152:	5f 4f       	sbci	r21, 0xFF	; 255
    1154:	61 e0       	ldi	r22, 0x01	; 1
    1156:	80 e0       	ldi	r24, 0x00	; 0
    1158:	0e 94 4a 03 	call	0x694 <LCD_Update>
					p->Batt.Mode = CYCLE;
    115c:	88 e0       	ldi	r24, 0x08	; 8
    115e:	f5 01       	movw	r30, r10
    1160:	83 87       	std	Z+11, r24	; 0x0b
					break;
    1162:	91 c4       	rjmp	.+2338   	; 0x1a86 <Li_Battery_Function+0xd64>

				case 9:
					sprintf ( Line + 4, "%8s", "MONITOR" );
    1164:	85 e5       	ldi	r24, 0x55	; 85
    1166:	92 e0       	ldi	r25, 0x02	; 2
    1168:	9f 93       	push	r25
    116a:	8f 93       	push	r24
    116c:	8d e5       	ldi	r24, 0x5D	; 93
    116e:	92 e0       	ldi	r25, 0x02	; 2
    1170:	9f 93       	push	r25
    1172:	8f 93       	push	r24
    1174:	ce 01       	movw	r24, r28
    1176:	05 96       	adiw	r24, 0x05	; 5
    1178:	9f 93       	push	r25
    117a:	8f 93       	push	r24
    117c:	0e 94 fe 1c 	call	0x39fc <sprintf>
					LCD_Update ( COL1, ROW1, Line );
    1180:	ae 01       	movw	r20, r28
    1182:	4f 5f       	subi	r20, 0xFF	; 255
    1184:	5f 4f       	sbci	r21, 0xFF	; 255
    1186:	60 e0       	ldi	r22, 0x00	; 0
    1188:	86 2f       	mov	r24, r22
    118a:	0e 94 4a 03 	call	0x694 <LCD_Update>
					sprintf ( Line, "%16s", Get_Item ( p, str, VOLT_SERIAL ));
    118e:	44 e0       	ldi	r20, 0x04	; 4
    1190:	be 01       	movw	r22, r28
    1192:	6e 5e       	subi	r22, 0xEE	; 238
    1194:	7f 4f       	sbci	r23, 0xFF	; 255
    1196:	c5 01       	movw	r24, r10
    1198:	0e 94 84 13 	call	0x2708 <Get_Item>
    119c:	9f 93       	push	r25
    119e:	8f 93       	push	r24
    11a0:	81 e6       	ldi	r24, 0x61	; 97
    11a2:	92 e0       	ldi	r25, 0x02	; 2
    11a4:	9f 93       	push	r25
    11a6:	8f 93       	push	r24
    11a8:	8e 01       	movw	r16, r28
    11aa:	0f 5f       	subi	r16, 0xFF	; 255
    11ac:	1f 4f       	sbci	r17, 0xFF	; 255
    11ae:	1f 93       	push	r17
    11b0:	0f 93       	push	r16
    11b2:	0e 94 fe 1c 	call	0x39fc <sprintf>
					LCD_Update ( COL1, ROW2, Line );
    11b6:	a8 01       	movw	r20, r16
    11b8:	61 e0       	ldi	r22, 0x01	; 1
    11ba:	80 e0       	ldi	r24, 0x00	; 0
    11bc:	0e 94 4a 03 	call	0x694 <LCD_Update>
					p->Batt.Mode = MONITOR;
    11c0:	89 e0       	ldi	r24, 0x09	; 9
    11c2:	f5 01       	movw	r30, r10
    11c4:	83 87       	std	Z+11, r24	; 0x0b
					p->Menu.Num_Top = ON;
    11c6:	81 85       	ldd	r24, Z+9	; 0x09
    11c8:	82 60       	ori	r24, 0x02	; 2
    11ca:	81 87       	std	Z+9, r24	; 0x09
					break;
    11cc:	2d b7       	in	r18, 0x3d	; 61
    11ce:	3e b7       	in	r19, 0x3e	; 62
    11d0:	24 5f       	subi	r18, 0xF4	; 244
    11d2:	3f 4f       	sbci	r19, 0xFF	; 255
    11d4:	2e c4       	rjmp	.+2140   	; 0x1a32 <Li_Battery_Function+0xd10>

				default:
					break;
			}
			break;

		case OPERATE_LAYER:
			if ( p->Menu.Key == OPEN )
    11d6:	f5 01       	movw	r30, r10
    11d8:	81 85       	ldd	r24, Z+9	; 0x09
    11da:	87 ff       	sbrs	r24, 7
    11dc:	8d c0       	rjmp	.+282    	; 0x12f8 <Li_Battery_Function+0x5d6>
			{
				p->Menu.Update = NEED;
    11de:	98 2f       	mov	r25, r24
    11e0:	9f 7b       	andi	r25, 0xBF	; 191
    11e2:	91 87       	std	Z+9, r25	; 0x09
				if ( p->Key.FIFO[0] & (ON<<KEY_STOP))
    11e4:	a3 e8       	ldi	r26, 0x83	; 131
    11e6:	ea 2e       	mov	r14, r26
    11e8:	f1 2c       	mov	r15, r1
    11ea:	ea 0c       	add	r14, r10
    11ec:	fb 1c       	adc	r15, r11
    11ee:	d7 01       	movw	r26, r14
    11f0:	8c 91       	ld	r24, X
    11f2:	87 ff       	sbrs	r24, 7
    11f4:	1b c0       	rjmp	.+54     	; 0x122c <Li_Battery_Function+0x50a>
				{
					if ( p->Pmu.State == ON ) p->Pmu.State = FORCE_STOP;
    11f6:	e9 5a       	subi	r30, 0xA9	; 169
    11f8:	ff 4f       	sbci	r31, 0xFF	; 255
    11fa:	80 81       	ld	r24, Z
    11fc:	81 30       	cpi	r24, 0x01	; 1
    11fe:	19 f4       	brne	.+6      	; 0x1206 <Li_Battery_Function+0x4e4>
    1200:	88 e0       	ldi	r24, 0x08	; 8
    1202:	80 83       	st	Z, r24
    1204:	06 c0       	rjmp	.+12     	; 0x1212 <Li_Battery_Function+0x4f0>
					else Menu_Jump ( p, OPERATE_LAYER - ONE_LAYER, p->Batt.Mode );
    1206:	f5 01       	movw	r30, r10
    1208:	43 85       	ldd	r20, Z+11	; 0x0b
    120a:	62 e0       	ldi	r22, 0x02	; 2
    120c:	c5 01       	movw	r24, r10
    120e:	0e 94 df 03 	call	0x7be <Menu_Jump>
					if     (( p->Menu.Num == 12 )||( p->Menu.Num == 13 )) 
    1212:	f5 01       	movw	r30, r10
    1214:	96 81       	ldd	r25, Z+6	; 0x06
    1216:	89 2f       	mov	r24, r25
    1218:	8c 50       	subi	r24, 0x0C	; 12
    121a:	82 30       	cpi	r24, 0x02	; 2
    121c:	18 f4       	brcc	.+6      	; 0x1224 <Li_Battery_Function+0x502>
												{ p->Menu.Num = 1;	p->Menu.Sub = 1; }
    121e:	81 e0       	ldi	r24, 0x01	; 1
    1220:	86 83       	std	Z+6, r24	; 0x06
    1222:	19 c0       	rjmp	.+50     	; 0x1256 <Li_Battery_Function+0x534>
					else if ( p->Menu.Num == 14 ) p->Menu.Num = 9;
    1224:	9e 30       	cpi	r25, 0x0E	; 14
    1226:	09 f0       	breq	.+2      	; 0x122a <Li_Battery_Function+0x508>
    1228:	47 c0       	rjmp	.+142    	; 0x12b8 <Li_Battery_Function+0x596>
    122a:	2e c0       	rjmp	.+92     	; 0x1288 <Li_Battery_Function+0x566>
					else  p->Menu.Update = UNNEED;
				}
				else if ( p->Key.FIFO[0] & (ON<<KEY_ENTER))
    122c:	80 ff       	sbrs	r24, 0
    122e:	06 c0       	rjmp	.+12     	; 0x123c <Li_Battery_Function+0x51a>
				{
					if ( p->Menu.Num == 8 ) p->Menu.Num = 9;
    1230:	f5 01       	movw	r30, r10
    1232:	86 81       	ldd	r24, Z+6	; 0x06
    1234:	88 30       	cpi	r24, 0x08	; 8
    1236:	09 f0       	breq	.+2      	; 0x123a <Li_Battery_Function+0x518>
    1238:	48 c0       	rjmp	.+144    	; 0x12ca <Li_Battery_Function+0x5a8>
    123a:	1b c0       	rjmp	.+54     	; 0x1272 <Li_Battery_Function+0x550>
					else p->Menu.Update = UNNEED;
				}
				else if ( p->Key.FIFO[0] == (ON<<KEY_INC))
    123c:	80 34       	cpi	r24, 0x40	; 64
    123e:	41 f5       	brne	.+80     	; 0x1290 <Li_Battery_Function+0x56e>
				{
					if		( p->Menu.Num ==  9 )  { p->Menu.Num = 10;  p->Menu.Sub = 0; }
    1240:	f5 01       	movw	r30, r10
    1242:	86 81       	ldd	r24, Z+6	; 0x06
    1244:	89 30       	cpi	r24, 0x09	; 9
    1246:	11 f4       	brne	.+4      	; 0x124c <Li_Battery_Function+0x52a>
    1248:	8a e0       	ldi	r24, 0x0A	; 10
    124a:	0b c0       	rjmp	.+22     	; 0x1262 <Li_Battery_Function+0x540>
					else if	( p->Menu.Sub ==  0 )    p->Menu.Sub =  1;
    124c:	f5 01       	movw	r30, r10
    124e:	27 81       	ldd	r18, Z+7	; 0x07
    1250:	22 23       	and	r18, r18
    1252:	19 f4       	brne	.+6      	; 0x125a <Li_Battery_Function+0x538>
    1254:	81 e0       	ldi	r24, 0x01	; 1
    1256:	87 83       	std	Z+7, r24	; 0x07
    1258:	3b c0       	rjmp	.+118    	; 0x12d0 <Li_Battery_Function+0x5ae>
					else if ( p->Menu.Num ==  1 )  { p->Menu.Num = 10;  p->Menu.Sub = 0; }
    125a:	81 30       	cpi	r24, 0x01	; 1
    125c:	21 f4       	brne	.+8      	; 0x1266 <Li_Battery_Function+0x544>
    125e:	8a e0       	ldi	r24, 0x0A	; 10
    1260:	f5 01       	movw	r30, r10
    1262:	86 83       	std	Z+6, r24	; 0x06
    1264:	27 c0       	rjmp	.+78     	; 0x12b4 <Li_Battery_Function+0x592>
					else if ( p->Menu.Num == 10 )
    1266:	8a 30       	cpi	r24, 0x0A	; 10
    1268:	41 f4       	brne	.+16     	; 0x127a <Li_Battery_Function+0x558>
						 if	( p->Batt.Mode != CYCLE ) p->Menu.Num = 9;
    126a:	f5 01       	movw	r30, r10
    126c:	83 85       	ldd	r24, Z+11	; 0x0b
    126e:	88 30       	cpi	r24, 0x08	; 8
    1270:	11 f0       	breq	.+4      	; 0x1276 <Li_Battery_Function+0x554>
    1272:	89 e0       	ldi	r24, 0x09	; 9
    1274:	0b c0       	rjmp	.+22     	; 0x128c <Li_Battery_Function+0x56a>
						 else { p->Menu.Num = 11;  p->Menu.Sub = 0; }
    1276:	8b e0       	ldi	r24, 0x0B	; 11
    1278:	f3 cf       	rjmp	.-26     	; 0x1260 <Li_Battery_Function+0x53e>
					else if ( p->Menu.Num == 11 )
    127a:	8b 30       	cpi	r24, 0x0B	; 11
    127c:	31 f5       	brne	.+76     	; 0x12ca <Li_Battery_Function+0x5a8>
						 if ( p->Menu.Sub < 4 ) p->Menu.Sub ++;
    127e:	24 30       	cpi	r18, 0x04	; 4
    1280:	18 f4       	brcc	.+6      	; 0x1288 <Li_Battery_Function+0x566>
    1282:	2f 5f       	subi	r18, 0xFF	; 255
    1284:	f5 01       	movw	r30, r10
    1286:	0e c0       	rjmp	.+28     	; 0x12a4 <Li_Battery_Function+0x582>
						 else p->Menu.Num = 9;
    1288:	89 e0       	ldi	r24, 0x09	; 9
    128a:	f5 01       	movw	r30, r10
    128c:	86 83       	std	Z+6, r24	; 0x06
    128e:	20 c0       	rjmp	.+64     	; 0x12d0 <Li_Battery_Function+0x5ae>
					else p->Menu.Update = UNNEED;
				}
				else if ( p->Key.FIFO[0] == (ON<<KEY_DEC))
    1290:	82 30       	cpi	r24, 0x02	; 2
    1292:	d9 f4       	brne	.+54     	; 0x12ca <Li_Battery_Function+0x5a8>
				{
					if ( p->Batt.Mode == MEASRUEMAN )
    1294:	f5 01       	movw	r30, r10
    1296:	23 85       	ldd	r18, Z+11	; 0x0b
    1298:	86 81       	ldd	r24, Z+6	; 0x06
    129a:	21 30       	cpi	r18, 0x01	; 1
    129c:	91 f4       	brne	.+36     	; 0x12c2 <Li_Battery_Function+0x5a0>
					{
						if  ( p->Menu.Num == 10 ) 
    129e:	8a 30       	cpi	r24, 0x0A	; 10
    12a0:	19 f4       	brne	.+6      	; 0x12a8 <Li_Battery_Function+0x586>
							{ p->Menu.Num = 1;	p->Menu.Sub = 1; }
    12a2:	26 83       	std	Z+6, r18	; 0x06
    12a4:	27 83       	std	Z+7, r18	; 0x07
    12a6:	14 c0       	rjmp	.+40     	; 0x12d0 <Li_Battery_Function+0x5ae>
						else if (( p->Menu.Num == 1 )&&( p->Menu.Sub == 1 ))
    12a8:	81 30       	cpi	r24, 0x01	; 1
    12aa:	31 f4       	brne	.+12     	; 0x12b8 <Li_Battery_Function+0x596>
    12ac:	f5 01       	movw	r30, r10
    12ae:	87 81       	ldd	r24, Z+7	; 0x07
    12b0:	81 30       	cpi	r24, 0x01	; 1
    12b2:	11 f4       	brne	.+4      	; 0x12b8 <Li_Battery_Function+0x596>
							 p->Menu.Sub = 0;
    12b4:	17 82       	std	Z+7, r1	; 0x07
    12b6:	0c c0       	rjmp	.+24     	; 0x12d0 <Li_Battery_Function+0x5ae>
						else p->Menu.Update = UNNEED;
    12b8:	f5 01       	movw	r30, r10
    12ba:	81 85       	ldd	r24, Z+9	; 0x09
    12bc:	80 64       	ori	r24, 0x40	; 64
    12be:	81 87       	std	Z+9, r24	; 0x09
    12c0:	07 c0       	rjmp	.+14     	; 0x12d0 <Li_Battery_Function+0x5ae>
					}
					else if (( p->Menu.Num == 9 )&&( p->Batt.Mode != AUTO_BALANCE ))
    12c2:	89 30       	cpi	r24, 0x09	; 9
    12c4:	11 f4       	brne	.+4      	; 0x12ca <Li_Battery_Function+0x5a8>
    12c6:	22 30       	cpi	r18, 0x02	; 2
    12c8:	19 f4       	brne	.+6      	; 0x12d0 <Li_Battery_Function+0x5ae>
						;//Menu_Jump ( p, Parameter_LAYER, 1 );
					else p->Menu.Update = UNNEED;
				}
				else p->Menu.Update = UNNEED;
    12ca:	90 64       	ori	r25, 0x40	; 64
    12cc:	f5 01       	movw	r30, r10
    12ce:	91 87       	std	Z+9, r25	; 0x09
				p->Key.n = FIFO_Pop ((unsigned char *) p->Key.FIFO, p->Key.n );
    12d0:	85 01       	movw	r16, r10
    12d2:	03 57       	subi	r16, 0x73	; 115
    12d4:	1f 4f       	sbci	r17, 0xFF	; 255
    12d6:	d8 01       	movw	r26, r16
    12d8:	6c 91       	ld	r22, X
    12da:	c7 01       	movw	r24, r14
    12dc:	0e 94 42 06 	call	0xc84 <FIFO_Pop>
    12e0:	f8 01       	movw	r30, r16
    12e2:	80 83       	st	Z, r24
				if (( p->Menu.Update == UNNEED )&&( p->Menu.Num != 9 ))
    12e4:	f5 01       	movw	r30, r10
    12e6:	91 85       	ldd	r25, Z+9	; 0x09
    12e8:	96 ff       	sbrs	r25, 6
    12ea:	06 c0       	rjmp	.+12     	; 0x12f8 <Li_Battery_Function+0x5d6>
    12ec:	86 81       	ldd	r24, Z+6	; 0x06
    12ee:	89 30       	cpi	r24, 0x09	; 9
    12f0:	19 f0       	breq	.+6      	; 0x12f8 <Li_Battery_Function+0x5d6>
				    { p->Menu.Update = NEED;  break; }
    12f2:	9f 7b       	andi	r25, 0xBF	; 191
    12f4:	91 87       	std	Z+9, r25	; 0x09
    12f6:	c7 c3       	rjmp	.+1934   	; 0x1a86 <Li_Battery_Function+0xd64>
			} 
			else ;
			p->Key.n = FIFO_Clear ((unsigned char *) p->Key.FIFO, p->Key.n );	
    12f8:	85 01       	movw	r16, r10
    12fa:	03 57       	subi	r16, 0x73	; 115
    12fc:	1f 4f       	sbci	r17, 0xFF	; 255
    12fe:	d8 01       	movw	r26, r16
    1300:	6c 91       	ld	r22, X
    1302:	c5 01       	movw	r24, r10
    1304:	8d 57       	subi	r24, 0x7D	; 125
    1306:	9f 4f       	sbci	r25, 0xFF	; 255
    1308:	0e 94 2e 06 	call	0xc5c <FIFO_Clear>
    130c:	f8 01       	movw	r30, r16
    130e:	80 83       	st	Z, r24
			p->Menu.Update = UNNEED;
    1310:	f5 01       	movw	r30, r10
    1312:	81 85       	ldd	r24, Z+9	; 0x09
			p->Menu.Key	= OPEN;
    1314:	80 6c       	ori	r24, 0xC0	; 192
    1316:	81 87       	std	Z+9, r24	; 0x09
			switch ( p->Menu.Num )
    1318:	86 81       	ldd	r24, Z+6	; 0x06
    131a:	99 27       	eor	r25, r25
    131c:	87 30       	cpi	r24, 0x07	; 7
    131e:	91 05       	cpc	r25, r1
    1320:	09 f4       	brne	.+2      	; 0x1324 <Li_Battery_Function+0x602>
    1322:	f5 c0       	rjmp	.+490    	; 0x150e <Li_Battery_Function+0x7ec>
    1324:	88 30       	cpi	r24, 0x08	; 8
    1326:	91 05       	cpc	r25, r1
    1328:	b4 f4       	brge	.+44     	; 0x1356 <Li_Battery_Function+0x634>
    132a:	83 30       	cpi	r24, 0x03	; 3
    132c:	91 05       	cpc	r25, r1
    132e:	09 f4       	brne	.+2      	; 0x1332 <Li_Battery_Function+0x610>
    1330:	eb c0       	rjmp	.+470    	; 0x1508 <Li_Battery_Function+0x7e6>
    1332:	84 30       	cpi	r24, 0x04	; 4
    1334:	91 05       	cpc	r25, r1
    1336:	3c f4       	brge	.+14     	; 0x1346 <Li_Battery_Function+0x624>
    1338:	81 30       	cpi	r24, 0x01	; 1
    133a:	91 05       	cpc	r25, r1
    133c:	39 f1       	breq	.+78     	; 0x138c <Li_Battery_Function+0x66a>
    133e:	02 97       	sbiw	r24, 0x02	; 2
    1340:	09 f4       	brne	.+2      	; 0x1344 <Li_Battery_Function+0x622>
    1342:	df c0       	rjmp	.+446    	; 0x1502 <Li_Battery_Function+0x7e0>
    1344:	a0 c3       	rjmp	.+1856   	; 0x1a86 <Li_Battery_Function+0xd64>
    1346:	85 30       	cpi	r24, 0x05	; 5
    1348:	91 05       	cpc	r25, r1
    134a:	09 f4       	brne	.+2      	; 0x134e <Li_Battery_Function+0x62c>
    134c:	a0 c0       	rjmp	.+320    	; 0x148e <Li_Battery_Function+0x76c>
    134e:	06 97       	sbiw	r24, 0x06	; 6
    1350:	0c f0       	brlt	.+2      	; 0x1354 <Li_Battery_Function+0x632>
    1352:	a0 c0       	rjmp	.+320    	; 0x1494 <Li_Battery_Function+0x772>
    1354:	99 c0       	rjmp	.+306    	; 0x1488 <Li_Battery_Function+0x766>
    1356:	8b 30       	cpi	r24, 0x0B	; 11
    1358:	91 05       	cpc	r25, r1
    135a:	09 f4       	brne	.+2      	; 0x135e <Li_Battery_Function+0x63c>
    135c:	ac c2       	rjmp	.+1368   	; 0x18b6 <Li_Battery_Function+0xb94>
    135e:	8c 30       	cpi	r24, 0x0C	; 12
    1360:	91 05       	cpc	r25, r1
    1362:	44 f4       	brge	.+16     	; 0x1374 <Li_Battery_Function+0x652>
    1364:	89 30       	cpi	r24, 0x09	; 9
    1366:	91 05       	cpc	r25, r1
    1368:	09 f4       	brne	.+2      	; 0x136c <Li_Battery_Function+0x64a>
    136a:	d4 c0       	rjmp	.+424    	; 0x1514 <Li_Battery_Function+0x7f2>
    136c:	0a 97       	sbiw	r24, 0x0a	; 10
    136e:	0c f0       	brlt	.+2      	; 0x1372 <Li_Battery_Function+0x650>
    1370:	15 c2       	rjmp	.+1066   	; 0x179c <Li_Battery_Function+0xa7a>
    1372:	93 c0       	rjmp	.+294    	; 0x149a <Li_Battery_Function+0x778>
    1374:	8d 30       	cpi	r24, 0x0D	; 13
    1376:	91 05       	cpc	r25, r1
    1378:	09 f4       	brne	.+2      	; 0x137c <Li_Battery_Function+0x65a>
    137a:	32 c3       	rjmp	.+1636   	; 0x19e0 <Li_Battery_Function+0xcbe>
    137c:	8d 30       	cpi	r24, 0x0D	; 13
    137e:	91 05       	cpc	r25, r1
    1380:	0c f4       	brge	.+2      	; 0x1384 <Li_Battery_Function+0x662>
    1382:	16 c3       	rjmp	.+1580   	; 0x19b0 <Li_Battery_Function+0xc8e>
    1384:	0e 97       	sbiw	r24, 0x0e	; 14
    1386:	09 f4       	brne	.+2      	; 0x138a <Li_Battery_Function+0x668>
    1388:	5a c3       	rjmp	.+1716   	; 0x1a3e <Li_Battery_Function+0xd1c>
    138a:	7d c3       	rjmp	.+1786   	; 0x1a86 <Li_Battery_Function+0xd64>
			{
				case MEASRUEMAN:
					if ( p->Menu.Sub == 0 ) 
    138c:	f5 01       	movw	r30, r10
    138e:	e7 80       	ldd	r14, Z+7	; 0x07
    1390:	6e 01       	movw	r12, r28
    1392:	08 94       	sec
    1394:	c1 1c       	adc	r12, r1
    1396:	d1 1c       	adc	r13, r1
    1398:	8e 01       	movw	r16, r28
    139a:	0e 5e       	subi	r16, 0xEE	; 238
    139c:	1f 4f       	sbci	r17, 0xFF	; 255
    139e:	ee 20       	and	r14, r14
    13a0:	f1 f5       	brne	.+124    	; 0x141e <Li_Battery_Function+0x6fc>
					{
						sprintf ( Line, "SOC:%s", Get_Item ( p, str, VOLT_METE ));
    13a2:	4e e0       	ldi	r20, 0x0E	; 14
    13a4:	b8 01       	movw	r22, r16
    13a6:	c5 01       	movw	r24, r10
    13a8:	0e 94 84 13 	call	0x2708 <Get_Item>
    13ac:	9f 93       	push	r25
    13ae:	8f 93       	push	r24
    13b0:	86 e6       	ldi	r24, 0x66	; 102
    13b2:	92 e0       	ldi	r25, 0x02	; 2
    13b4:	9f 93       	push	r25
    13b6:	8f 93       	push	r24
    13b8:	df 92       	push	r13
    13ba:	cf 92       	push	r12
    13bc:	0e 94 fe 1c 	call	0x39fc <sprintf>
						LCD_Update ( COL1, ROW1, Line );
    13c0:	a6 01       	movw	r20, r12
    13c2:	6e 2d       	mov	r22, r14
    13c4:	8e 2d       	mov	r24, r14
    13c6:	0e 94 4a 03 	call	0x694 <LCD_Update>
						sprintf ( Line, "%s Fuel", Get_Item ( p, str, PERCENT ));
    13ca:	41 e1       	ldi	r20, 0x11	; 17
    13cc:	b8 01       	movw	r22, r16
    13ce:	c5 01       	movw	r24, r10
    13d0:	0e 94 84 13 	call	0x2708 <Get_Item>
    13d4:	9f 93       	push	r25
    13d6:	8f 93       	push	r24
    13d8:	8d e6       	ldi	r24, 0x6D	; 109
    13da:	92 e0       	ldi	r25, 0x02	; 2
    13dc:	9f 93       	push	r25
    13de:	8f 93       	push	r24
    13e0:	df 92       	push	r13
    13e2:	cf 92       	push	r12
    13e4:	0e 94 fe 1c 	call	0x39fc <sprintf>
						sprintf ( Line + 8, "%8s", Get_Item ( p, str, VOLT ));
    13e8:	45 e0       	ldi	r20, 0x05	; 5
    13ea:	b8 01       	movw	r22, r16
    13ec:	c5 01       	movw	r24, r10
    13ee:	0e 94 84 13 	call	0x2708 <Get_Item>
    13f2:	9f 93       	push	r25
    13f4:	8f 93       	push	r24
    13f6:	8d e5       	ldi	r24, 0x5D	; 93
    13f8:	92 e0       	ldi	r25, 0x02	; 2
    13fa:	9f 93       	push	r25
    13fc:	8f 93       	push	r24
    13fe:	ce 01       	movw	r24, r28
    1400:	09 96       	adiw	r24, 0x09	; 9
    1402:	9f 93       	push	r25
    1404:	8f 93       	push	r24
    1406:	0e 94 fe 1c 	call	0x39fc <sprintf>
						LCD_Update ( COL1, ROW2, Line );
    140a:	a6 01       	movw	r20, r12
    140c:	61 e0       	ldi	r22, 0x01	; 1
    140e:	8e 2d       	mov	r24, r14
    1410:	0e 94 4a 03 	call	0x694 <LCD_Update>
    1414:	2d b7       	in	r18, 0x3d	; 61
    1416:	3e b7       	in	r19, 0x3e	; 62
    1418:	2e 5e       	subi	r18, 0xEE	; 238
    141a:	3f 4f       	sbci	r19, 0xFF	; 255
    141c:	0a c3       	rjmp	.+1556   	; 0x1a32 <Li_Battery_Function+0xd10>
					}
					else 
					{
						sprintf ( Line,  "BAL:%s", Get_Item ( p, str, BALANCE_METE ));
    141e:	4f e0       	ldi	r20, 0x0F	; 15
    1420:	b8 01       	movw	r22, r16
    1422:	c5 01       	movw	r24, r10
    1424:	0e 94 84 13 	call	0x2708 <Get_Item>
    1428:	9f 93       	push	r25
    142a:	8f 93       	push	r24
    142c:	85 e7       	ldi	r24, 0x75	; 117
    142e:	92 e0       	ldi	r25, 0x02	; 2
    1430:	9f 93       	push	r25
    1432:	8f 93       	push	r24
    1434:	df 92       	push	r13
    1436:	cf 92       	push	r12
    1438:	0e 94 fe 1c 	call	0x39fc <sprintf>
						sprintf ( Line + 16, "%s", Get_Item ( p, str, BALANCE_GRADE ));
    143c:	40 e1       	ldi	r20, 0x10	; 16
    143e:	b8 01       	movw	r22, r16
    1440:	c5 01       	movw	r24, r10
    1442:	0e 94 84 13 	call	0x2708 <Get_Item>
    1446:	bc 01       	movw	r22, r24
    1448:	ce 01       	movw	r24, r28
    144a:	41 96       	adiw	r24, 0x11	; 17
    144c:	0e 94 f7 1c 	call	0x39ee <strcpy>
						LCD_Update ( COL1, ROW1, Line );
    1450:	a6 01       	movw	r20, r12
    1452:	60 e0       	ldi	r22, 0x00	; 0
    1454:	86 2f       	mov	r24, r22
    1456:	0e 94 4a 03 	call	0x694 <LCD_Update>
						sprintf ( Line, "%s", Get_Item ( p, str, HIGH_LOW_CELL ));
    145a:	44 e1       	ldi	r20, 0x14	; 20
    145c:	b8 01       	movw	r22, r16
    145e:	c5 01       	movw	r24, r10
    1460:	0e 94 84 13 	call	0x2708 <Get_Item>
    1464:	bc 01       	movw	r22, r24
    1466:	c6 01       	movw	r24, r12
    1468:	0e 94 f7 1c 	call	0x39ee <strcpy>
						LCD_Update ( COL1, ROW2, Line );
    146c:	a6 01       	movw	r20, r12
    146e:	61 e0       	ldi	r22, 0x01	; 1
    1470:	80 e0       	ldi	r24, 0x00	; 0
    1472:	0e 94 4a 03 	call	0x694 <LCD_Update>
    1476:	8d b7       	in	r24, 0x3d	; 61
    1478:	9e b7       	in	r25, 0x3e	; 62
    147a:	06 96       	adiw	r24, 0x06	; 6
    147c:	0f b6       	in	r0, 0x3f	; 63
    147e:	f8 94       	cli
    1480:	9e bf       	out	0x3e, r25	; 62
    1482:	0f be       	out	0x3f, r0	; 63
    1484:	8d bf       	out	0x3d, r24	; 61
					}
					break;
    1486:	ff c2       	rjmp	.+1534   	; 0x1a86 <Li_Battery_Function+0xd64>

				case CHARGE:
					 p->Menu.Num = CYCLE;
    1488:	88 e0       	ldi	r24, 0x08	; 8
    148a:	f5 01       	movw	r30, r10
    148c:	86 83       	std	Z+6, r24	; 0x06
				case FAST_CHARGE:
					 p->Menu.Num = CYCLE;
    148e:	88 e0       	ldi	r24, 0x08	; 8
    1490:	f5 01       	movw	r30, r10
    1492:	86 83       	std	Z+6, r24	; 0x06
				case DISCHARGE:
					 p->Menu.Num = CYCLE;
    1494:	88 e0       	ldi	r24, 0x08	; 8
    1496:	f5 01       	movw	r30, r10
    1498:	86 83       	std	Z+6, r24	; 0x06
				case CYCLE:
					sprintf ( Line, "R:%02dSER  S:%02dSER", Detect_Batt_Count ( p ), 
    149a:	f5 01       	movw	r30, r10
    149c:	92 89       	ldd	r25, Z+18	; 0x12
    149e:	83 89       	ldd	r24, Z+19	; 0x13
    14a0:	98 9f       	mul	r25, r24
    14a2:	c0 01       	movw	r24, r0
    14a4:	11 24       	eor	r1, r1
    14a6:	9f 93       	push	r25
    14a8:	8f 93       	push	r24
    14aa:	c5 01       	movw	r24, r10
    14ac:	0e 94 98 1a 	call	0x3530 <Detect_Batt_Count>
    14b0:	99 27       	eor	r25, r25
    14b2:	9f 93       	push	r25
    14b4:	8f 93       	push	r24
    14b6:	8c e7       	ldi	r24, 0x7C	; 124
    14b8:	92 e0       	ldi	r25, 0x02	; 2
    14ba:	9f 93       	push	r25
    14bc:	8f 93       	push	r24
    14be:	8e 01       	movw	r16, r28
    14c0:	0f 5f       	subi	r16, 0xFF	; 255
    14c2:	1f 4f       	sbci	r17, 0xFF	; 255
    14c4:	1f 93       	push	r17
    14c6:	0f 93       	push	r16
    14c8:	0e 94 fe 1c 	call	0x39fc <sprintf>
															p->Batt.Pack * p->Batt.Serial );
					LCD_Update ( COL1, ROW1, Line );
    14cc:	a8 01       	movw	r20, r16
    14ce:	60 e0       	ldi	r22, 0x00	; 0
    14d0:	86 2f       	mov	r24, r22
    14d2:	0e 94 4a 03 	call	0x694 <LCD_Update>
					sprintf ( Line, "%s", "CONFIRM (ENTER)" );
    14d6:	80 e1       	ldi	r24, 0x10	; 16
    14d8:	e1 e9       	ldi	r30, 0x91	; 145
    14da:	f2 e0       	ldi	r31, 0x02	; 2
    14dc:	d8 01       	movw	r26, r16
    14de:	01 90       	ld	r0, Z+
    14e0:	0d 92       	st	X+, r0
    14e2:	8a 95       	dec	r24
    14e4:	e1 f7       	brne	.-8      	; 0x14de <Li_Battery_Function+0x7bc>
					LCD_Update ( COL1, ROW2, Line );
    14e6:	a8 01       	movw	r20, r16
    14e8:	61 e0       	ldi	r22, 0x01	; 1
    14ea:	80 e0       	ldi	r24, 0x00	; 0
    14ec:	0e 94 4a 03 	call	0x694 <LCD_Update>
					break;
    14f0:	ed b7       	in	r30, 0x3d	; 61
    14f2:	fe b7       	in	r31, 0x3e	; 62
    14f4:	38 96       	adiw	r30, 0x08	; 8
    14f6:	0f b6       	in	r0, 0x3f	; 63
    14f8:	f8 94       	cli
    14fa:	fe bf       	out	0x3e, r31	; 62
    14fc:	0f be       	out	0x3f, r0	; 63
    14fe:	ed bf       	out	0x3d, r30	; 61
    1500:	c2 c2       	rjmp	.+1412   	; 0x1a86 <Li_Battery_Function+0xd64>

				case AUTO_BALANCE:
					 p->Menu.Num = MONITOR;
    1502:	89 e0       	ldi	r24, 0x09	; 9
    1504:	f5 01       	movw	r30, r10
    1506:	86 83       	std	Z+6, r24	; 0x06
				case BALANCE_CHARGE:
					 p->Menu.Num = MONITOR;
    1508:	89 e0       	ldi	r24, 0x09	; 9
    150a:	f5 01       	movw	r30, r10
    150c:	86 83       	std	Z+6, r24	; 0x06
				case STORAGE:
				 	 p->Menu.Num = MONITOR;
    150e:	89 e0       	ldi	r24, 0x09	; 9
    1510:	f5 01       	movw	r30, r10
    1512:	86 83       	std	Z+6, r24	; 0x06
				case MONITOR:
					if ( p->Menu.Toggle == OFF )
    1514:	f5 01       	movw	r30, r10
    1516:	81 85       	ldd	r24, Z+9	; 0x09
    1518:	85 fd       	sbrc	r24, 5
    151a:	37 c0       	rjmp	.+110    	; 0x158a <Li_Battery_Function+0x868>
					{
						if ( p->Pmu.State != NORM_OVER )
    151c:	27 e5       	ldi	r18, 0x57	; 87
    151e:	30 e0       	ldi	r19, 0x00	; 0
    1520:	a2 0e       	add	r10, r18
    1522:	b3 1e       	adc	r11, r19
    1524:	d5 01       	movw	r26, r10
    1526:	8c 91       	ld	r24, X
    1528:	e9 ea       	ldi	r30, 0xA9	; 169
    152a:	ff ef       	ldi	r31, 0xFF	; 255
    152c:	ae 0e       	add	r10, r30
    152e:	bf 1e       	adc	r11, r31
    1530:	84 30       	cpi	r24, 0x04	; 4
    1532:	d9 f0       	breq	.+54     	; 0x156a <Li_Battery_Function+0x848>
						{
							if	 	( p->Batt.Type == LIPO ) sprintf ( Line, "%s", "LiPo" );
    1534:	f5 01       	movw	r30, r10
    1536:	82 85       	ldd	r24, Z+10	; 0x0a
    1538:	88 23       	and	r24, r24
    153a:	21 f4       	brne	.+8      	; 0x1544 <Li_Battery_Function+0x822>
    153c:	85 e0       	ldi	r24, 0x05	; 5
    153e:	aa ee       	ldi	r26, 0xEA	; 234
    1540:	b1 e0       	ldi	r27, 0x01	; 1
    1542:	1c c0       	rjmp	.+56     	; 0x157c <Li_Battery_Function+0x85a>
    1544:	6e 01       	movw	r12, r28
    1546:	08 94       	sec
    1548:	c1 1c       	adc	r12, r1
    154a:	d1 1c       	adc	r13, r1
							else if	( p->Batt.Type == LIIO ) sprintf ( Line, "%s", "LiIo" );
    154c:	81 30       	cpi	r24, 0x01	; 1
    154e:	21 f4       	brne	.+8      	; 0x1558 <Li_Battery_Function+0x836>
    1550:	85 e0       	ldi	r24, 0x05	; 5
    1552:	ef ee       	ldi	r30, 0xEF	; 239
    1554:	f1 e0       	ldi	r31, 0x01	; 1
    1556:	03 c0       	rjmp	.+6      	; 0x155e <Li_Battery_Function+0x83c>
							else 							 sprintf ( Line, "%s", "LiFe" );
    1558:	85 e0       	ldi	r24, 0x05	; 5
    155a:	e4 ef       	ldi	r30, 0xF4	; 244
    155c:	f1 e0       	ldi	r31, 0x01	; 1
    155e:	d6 01       	movw	r26, r12
    1560:	01 90       	ld	r0, Z+
    1562:	0d 92       	st	X+, r0
    1564:	8a 95       	dec	r24
    1566:	e1 f7       	brne	.-8      	; 0x1560 <Li_Battery_Function+0x83e>
    1568:	22 c0       	rjmp	.+68     	; 0x15ae <Li_Battery_Function+0x88c>
						}
						else
						{
							if (( p->Batt.Mode != AUTO_BALANCE ) &&
    156a:	f5 01       	movw	r30, r10
    156c:	83 85       	ldd	r24, Z+11	; 0x0b
    156e:	82 30       	cpi	r24, 0x02	; 2
    1570:	f1 f0       	breq	.+60     	; 0x15ae <Li_Battery_Function+0x88c>
    1572:	89 30       	cpi	r24, 0x09	; 9
    1574:	e1 f0       	breq	.+56     	; 0x15ae <Li_Battery_Function+0x88c>
						    	( p->Batt.Mode != MONITOR )) sprintf ( Line, "%s", "DONE" );
    1576:	85 e0       	ldi	r24, 0x05	; 5
    1578:	a1 ea       	ldi	r26, 0xA1	; 161
    157a:	b2 e0       	ldi	r27, 0x02	; 2
    157c:	fe 01       	movw	r30, r28
    157e:	31 96       	adiw	r30, 0x01	; 1
    1580:	0d 90       	ld	r0, X+
    1582:	01 92       	st	Z+, r0
    1584:	8a 95       	dec	r24
    1586:	e1 f7       	brne	.-8      	; 0x1580 <Li_Battery_Function+0x85e>
    1588:	12 c0       	rjmp	.+36     	; 0x15ae <Li_Battery_Function+0x88c>
						}
					}
					else  
						sprintf ( Line + 2, "%s", Get_Item ( p, str, p->Batt.Pack * p->Batt.Serial ));
    158a:	f5 01       	movw	r30, r10
    158c:	92 89       	ldd	r25, Z+18	; 0x12
    158e:	83 89       	ldd	r24, Z+19	; 0x13
    1590:	98 9f       	mul	r25, r24
    1592:	80 2d       	mov	r24, r0
    1594:	11 24       	eor	r1, r1
    1596:	48 2f       	mov	r20, r24
    1598:	be 01       	movw	r22, r28
    159a:	6e 5e       	subi	r22, 0xEE	; 238
    159c:	7f 4f       	sbci	r23, 0xFF	; 255
    159e:	c5 01       	movw	r24, r10
    15a0:	0e 94 84 13 	call	0x2708 <Get_Item>
    15a4:	bc 01       	movw	r22, r24
    15a6:	ce 01       	movw	r24, r28
    15a8:	03 96       	adiw	r24, 0x03	; 3
    15aa:	0e 94 f7 1c 	call	0x39ee <strcpy>
					p->Menu.Toggle = ~p->Menu.Toggle;
    15ae:	f5 01       	movw	r30, r10
    15b0:	91 85       	ldd	r25, Z+9	; 0x09
    15b2:	89 2f       	mov	r24, r25
    15b4:	82 95       	swap	r24
    15b6:	86 95       	lsr	r24
    15b8:	87 70       	andi	r24, 0x07	; 7
    15ba:	80 95       	com	r24
    15bc:	81 70       	andi	r24, 0x01	; 1
    15be:	82 95       	swap	r24
    15c0:	88 0f       	add	r24, r24
    15c2:	80 7e       	andi	r24, 0xE0	; 224
    15c4:	9f 7d       	andi	r25, 0xDF	; 223
    15c6:	98 2b       	or	r25, r24
    15c8:	91 87       	std	Z+9, r25	; 0x09

					if ( p->Batt.Mode == MONITOR )
    15ca:	83 85       	ldd	r24, Z+11	; 0x0b
    15cc:	75 e0       	ldi	r23, 0x05	; 5
    15ce:	c7 2e       	mov	r12, r23
    15d0:	d1 2c       	mov	r13, r1
    15d2:	cc 0e       	add	r12, r28
    15d4:	dd 1e       	adc	r13, r29
    15d6:	8e 01       	movw	r16, r28
    15d8:	0e 5e       	subi	r16, 0xEE	; 238
    15da:	1f 4f       	sbci	r17, 0xFF	; 255
    15dc:	89 30       	cpi	r24, 0x09	; 9
    15de:	c9 f4       	brne	.+50     	; 0x1612 <Li_Battery_Function+0x8f0>
						 sprintf ( Line + 4, " %s", Get_Item ( p, str, TEMPERATURE ));
    15e0:	46 e0       	ldi	r20, 0x06	; 6
    15e2:	b8 01       	movw	r22, r16
    15e4:	c5 01       	movw	r24, r10
    15e6:	0e 94 84 13 	call	0x2708 <Get_Item>
    15ea:	9f 93       	push	r25
    15ec:	8f 93       	push	r24
    15ee:	86 ea       	ldi	r24, 0xA6	; 166
    15f0:	92 e0       	ldi	r25, 0x02	; 2
    15f2:	9f 93       	push	r25
    15f4:	8f 93       	push	r24
    15f6:	df 92       	push	r13
    15f8:	cf 92       	push	r12
    15fa:	0e 94 fe 1c 	call	0x39fc <sprintf>
    15fe:	2d b7       	in	r18, 0x3d	; 61
    1600:	3e b7       	in	r19, 0x3e	; 62
    1602:	2a 5f       	subi	r18, 0xFA	; 250
    1604:	3f 4f       	sbci	r19, 0xFF	; 255
    1606:	0f b6       	in	r0, 0x3f	; 63
    1608:	f8 94       	cli
    160a:	3e bf       	out	0x3e, r19	; 62
    160c:	0f be       	out	0x3f, r0	; 63
    160e:	2d bf       	out	0x3d, r18	; 61
    1610:	09 c0       	rjmp	.+18     	; 0x1624 <Li_Battery_Function+0x902>
					else sprintf ( Line + 4,  "%s", Get_Item ( p, str, CUR_IMA ));
    1612:	41 e0       	ldi	r20, 0x01	; 1
    1614:	b8 01       	movw	r22, r16
    1616:	c5 01       	movw	r24, r10
    1618:	0e 94 84 13 	call	0x2708 <Get_Item>
    161c:	bc 01       	movw	r22, r24
    161e:	c6 01       	movw	r24, r12
    1620:	0e 94 f7 1c 	call	0x39ee <strcpy>
	 					 sprintf ( Line + 9, " %s", Get_Item ( p, str, VOLT ));
    1624:	62 e1       	ldi	r22, 0x12	; 18
    1626:	e6 2e       	mov	r14, r22
    1628:	f1 2c       	mov	r15, r1
    162a:	ec 0e       	add	r14, r28
    162c:	fd 1e       	adc	r15, r29
    162e:	45 e0       	ldi	r20, 0x05	; 5
    1630:	b7 01       	movw	r22, r14
    1632:	c5 01       	movw	r24, r10
    1634:	0e 94 84 13 	call	0x2708 <Get_Item>
    1638:	9f 93       	push	r25
    163a:	8f 93       	push	r24
    163c:	86 ea       	ldi	r24, 0xA6	; 166
    163e:	92 e0       	ldi	r25, 0x02	; 2
    1640:	9f 93       	push	r25
    1642:	8f 93       	push	r24
    1644:	5a e0       	ldi	r21, 0x0A	; 10
    1646:	c5 2e       	mov	r12, r21
    1648:	d1 2c       	mov	r13, r1
    164a:	cc 0e       	add	r12, r28
    164c:	dd 1e       	adc	r13, r29
    164e:	df 92       	push	r13
    1650:	cf 92       	push	r12
    1652:	0e 94 fe 1c 	call	0x39fc <sprintf>
					LCD_Update ( COL1, ROW1, Line );
    1656:	ae 01       	movw	r20, r28
    1658:	4f 5f       	subi	r20, 0xFF	; 255
    165a:	5f 4f       	sbci	r21, 0xFF	; 255
    165c:	60 e0       	ldi	r22, 0x00	; 0
    165e:	86 2f       	mov	r24, r22
    1660:	0e 94 4a 03 	call	0x694 <LCD_Update>

					if 		( p->Batt.Mode == AUTO_BALANCE	 ) sprintf ( Line, "%s", "Aut" );
    1664:	f5 01       	movw	r30, r10
    1666:	23 85       	ldd	r18, Z+11	; 0x0b
    1668:	8d b7       	in	r24, 0x3d	; 61
    166a:	9e b7       	in	r25, 0x3e	; 62
    166c:	06 96       	adiw	r24, 0x06	; 6
    166e:	0f b6       	in	r0, 0x3f	; 63
    1670:	f8 94       	cli
    1672:	9e bf       	out	0x3e, r25	; 62
    1674:	0f be       	out	0x3f, r0	; 63
    1676:	8d bf       	out	0x3d, r24	; 61
    1678:	22 30       	cpi	r18, 0x02	; 2
    167a:	29 f4       	brne	.+10     	; 0x1686 <Li_Battery_Function+0x964>
    167c:	81 e4       	ldi	r24, 0x41	; 65
    167e:	95 e7       	ldi	r25, 0x75	; 117
    1680:	a4 e7       	ldi	r26, 0x74	; 116
    1682:	b0 e0       	ldi	r27, 0x00	; 0
    1684:	32 c0       	rjmp	.+100    	; 0x16ea <Li_Battery_Function+0x9c8>
					else if	( p->Batt.Mode == BALANCE_CHARGE ) sprintf ( Line, "%s", "BAL" );
    1686:	23 30       	cpi	r18, 0x03	; 3
    1688:	29 f4       	brne	.+10     	; 0x1694 <Li_Battery_Function+0x972>
    168a:	82 e4       	ldi	r24, 0x42	; 66
    168c:	91 e4       	ldi	r25, 0x41	; 65
    168e:	ac e4       	ldi	r26, 0x4C	; 76
    1690:	b0 e0       	ldi	r27, 0x00	; 0
    1692:	2b c0       	rjmp	.+86     	; 0x16ea <Li_Battery_Function+0x9c8>
					else if ( p->Batt.Mode == CHARGE		 ) sprintf ( Line, "%s", "CHG" );
    1694:	24 30       	cpi	r18, 0x04	; 4
    1696:	29 f4       	brne	.+10     	; 0x16a2 <Li_Battery_Function+0x980>
    1698:	83 e4       	ldi	r24, 0x43	; 67
    169a:	98 e4       	ldi	r25, 0x48	; 72
    169c:	a7 e4       	ldi	r26, 0x47	; 71
    169e:	b0 e0       	ldi	r27, 0x00	; 0
    16a0:	24 c0       	rjmp	.+72     	; 0x16ea <Li_Battery_Function+0x9c8>
					else if ( p->Batt.Mode == FAST_CHARGE	 ) sprintf ( Line, "%s", "FAS" );
    16a2:	25 30       	cpi	r18, 0x05	; 5
    16a4:	29 f4       	brne	.+10     	; 0x16b0 <Li_Battery_Function+0x98e>
    16a6:	86 e4       	ldi	r24, 0x46	; 70
    16a8:	91 e4       	ldi	r25, 0x41	; 65
    16aa:	a3 e5       	ldi	r26, 0x53	; 83
    16ac:	b0 e0       	ldi	r27, 0x00	; 0
    16ae:	1d c0       	rjmp	.+58     	; 0x16ea <Li_Battery_Function+0x9c8>
					else if ( p->Batt.Mode == STORAGE		 ) sprintf ( Line, "%s", "STO" );
    16b0:	27 30       	cpi	r18, 0x07	; 7
    16b2:	29 f4       	brne	.+10     	; 0x16be <Li_Battery_Function+0x99c>
    16b4:	83 e5       	ldi	r24, 0x53	; 83
    16b6:	94 e5       	ldi	r25, 0x54	; 84
    16b8:	af e4       	ldi	r26, 0x4F	; 79
    16ba:	b0 e0       	ldi	r27, 0x00	; 0
    16bc:	16 c0       	rjmp	.+44     	; 0x16ea <Li_Battery_Function+0x9c8>
					else if ( p->Batt.Mode == DISCHARGE		 ) sprintf ( Line, "%s", "DIS" );
    16be:	26 30       	cpi	r18, 0x06	; 6
    16c0:	29 f4       	brne	.+10     	; 0x16cc <Li_Battery_Function+0x9aa>
    16c2:	84 e4       	ldi	r24, 0x44	; 68
    16c4:	99 e4       	ldi	r25, 0x49	; 73
    16c6:	a3 e5       	ldi	r26, 0x53	; 83
    16c8:	b0 e0       	ldi	r27, 0x00	; 0
    16ca:	0f c0       	rjmp	.+30     	; 0x16ea <Li_Battery_Function+0x9c8>
					else if ( p->Batt.Mode == CYCLE			 ) 
    16cc:	28 30       	cpi	r18, 0x08	; 8
    16ce:	89 f4       	brne	.+34     	; 0x16f2 <Li_Battery_Function+0x9d0>
						 if ( p->Batt.Cycle.Form & D_C 		 ) sprintf ( Line, "%s", "D>C" );
    16d0:	f5 01       	movw	r30, r10
    16d2:	84 89       	ldd	r24, Z+20	; 0x14
    16d4:	87 ff       	sbrs	r24, 7
    16d6:	05 c0       	rjmp	.+10     	; 0x16e2 <Li_Battery_Function+0x9c0>
    16d8:	84 e4       	ldi	r24, 0x44	; 68
    16da:	9e e3       	ldi	r25, 0x3E	; 62
    16dc:	a3 e4       	ldi	r26, 0x43	; 67
    16de:	b0 e0       	ldi	r27, 0x00	; 0
    16e0:	04 c0       	rjmp	.+8      	; 0x16ea <Li_Battery_Function+0x9c8>
						 else 					  			   sprintf ( Line, "%s", "C>D" );
    16e2:	83 e4       	ldi	r24, 0x43	; 67
    16e4:	9e e3       	ldi	r25, 0x3E	; 62
    16e6:	a4 e4       	ldi	r26, 0x44	; 68
    16e8:	b0 e0       	ldi	r27, 0x00	; 0
    16ea:	89 83       	std	Y+1, r24	; 0x01
    16ec:	9a 83       	std	Y+2, r25	; 0x02
    16ee:	ab 83       	std	Y+3, r26	; 0x03
    16f0:	bc 83       	std	Y+4, r27	; 0x04
    16f2:	8e 01       	movw	r16, r28
    16f4:	0c 5f       	subi	r16, 0xFC	; 252
    16f6:	1f 4f       	sbci	r17, 0xFF	; 255
					else ;
					if 		( p->Batt.Mode == MONITOR 	   ) { sprintf ( Line, "%s", "Mon" );
    16f8:	29 30       	cpi	r18, 0x09	; 9
    16fa:	59 f5       	brne	.+86     	; 0x1752 <Li_Battery_Function+0xa30>
    16fc:	8d e4       	ldi	r24, 0x4D	; 77
    16fe:	9f e6       	ldi	r25, 0x6F	; 111
    1700:	ae e6       	ldi	r26, 0x6E	; 110
    1702:	b0 e0       	ldi	r27, 0x00	; 0
    1704:	89 83       	std	Y+1, r24	; 0x01
    1706:	9a 83       	std	Y+2, r25	; 0x02
    1708:	ab 83       	std	Y+3, r26	; 0x03
    170a:	bc 83       	std	Y+4, r27	; 0x04
						 sprintf ( Line + 3, "%d.%02dV", p->Pmu.CellL / 100, 
    170c:	f5 01       	movw	r30, r10
    170e:	eb 5a       	subi	r30, 0xAB	; 171
    1710:	ff 4f       	sbci	r31, 0xFF	; 255
    1712:	80 81       	ld	r24, Z
    1714:	64 e6       	ldi	r22, 0x64	; 100
    1716:	0e 94 37 20 	call	0x406e <__udivmodqi4>
    171a:	89 2f       	mov	r24, r25
    171c:	99 27       	eor	r25, r25
    171e:	9f 93       	push	r25
    1720:	8f 93       	push	r24
    1722:	80 81       	ld	r24, Z
    1724:	0e 94 37 20 	call	0x406e <__udivmodqi4>
    1728:	99 27       	eor	r25, r25
    172a:	9f 93       	push	r25
    172c:	8f 93       	push	r24
    172e:	8a ea       	ldi	r24, 0xAA	; 170
    1730:	92 e0       	ldi	r25, 0x02	; 2
    1732:	9f 93       	push	r25
    1734:	8f 93       	push	r24
    1736:	1f 93       	push	r17
    1738:	0f 93       	push	r16
    173a:	0e 94 fe 1c 	call	0x39fc <sprintf>
    173e:	2d b7       	in	r18, 0x3d	; 61
    1740:	3e b7       	in	r19, 0x3e	; 62
    1742:	28 5f       	subi	r18, 0xF8	; 248
    1744:	3f 4f       	sbci	r19, 0xFF	; 255
    1746:	0f b6       	in	r0, 0x3f	; 63
    1748:	f8 94       	cli
    174a:	3e bf       	out	0x3e, r19	; 62
    174c:	0f be       	out	0x3f, r0	; 63
    174e:	2d bf       	out	0x3d, r18	; 61
    1750:	09 c0       	rjmp	.+18     	; 0x1764 <Li_Battery_Function+0xa42>
						 								 p->Pmu.CellL % 100 ); 	
														 	 					}
					else sprintf ( Line + 3, "%s",  Get_Item ( p, str, CAPACITY ));
    1752:	4b e0       	ldi	r20, 0x0B	; 11
    1754:	b7 01       	movw	r22, r14
    1756:	c5 01       	movw	r24, r10
    1758:	0e 94 84 13 	call	0x2708 <Get_Item>
    175c:	bc 01       	movw	r22, r24
    175e:	c8 01       	movw	r24, r16
    1760:	0e 94 f7 1c 	call	0x39ee <strcpy>
						 sprintf ( Line + 9, "%7s", Get_Item ( p, str, TIME ));
    1764:	4d e0       	ldi	r20, 0x0D	; 13
    1766:	be 01       	movw	r22, r28
    1768:	6e 5e       	subi	r22, 0xEE	; 238
    176a:	7f 4f       	sbci	r23, 0xFF	; 255
    176c:	c5 01       	movw	r24, r10
    176e:	0e 94 84 13 	call	0x2708 <Get_Item>
    1772:	9f 93       	push	r25
    1774:	8f 93       	push	r24
    1776:	8b e3       	ldi	r24, 0x3B	; 59
    1778:	92 e0       	ldi	r25, 0x02	; 2
    177a:	9f 93       	push	r25
    177c:	8f 93       	push	r24
    177e:	df 92       	push	r13
    1780:	cf 92       	push	r12
    1782:	0e 94 fe 1c 	call	0x39fc <sprintf>
					LCD_Update ( COL1, ROW2, Line );
    1786:	ae 01       	movw	r20, r28
    1788:	4f 5f       	subi	r20, 0xFF	; 255
    178a:	5f 4f       	sbci	r21, 0xFF	; 255
    178c:	61 e0       	ldi	r22, 0x01	; 1
    178e:	80 e0       	ldi	r24, 0x00	; 0
    1790:	0e 94 4a 03 	call	0x694 <LCD_Update>
					p->Menu.Update = NEED;
    1794:	f5 01       	movw	r30, r10
    1796:	81 85       	ldd	r24, Z+9	; 0x09
    1798:	8f 7b       	andi	r24, 0xBF	; 191
    179a:	46 c1       	rjmp	.+652    	; 0x1a28 <Li_Battery_Function+0xd06>
					break;

				case 10:
					sprintf ( Line +1, "%s", Get_Item ( p, str, VOLT_CELLS ));
    179c:	42 e1       	ldi	r20, 0x12	; 18
    179e:	84 2e       	mov	r8, r20
    17a0:	91 2c       	mov	r9, r1
    17a2:	8c 0e       	add	r8, r28
    17a4:	9d 1e       	adc	r9, r29
    17a6:	43 e1       	ldi	r20, 0x13	; 19
    17a8:	b4 01       	movw	r22, r8
    17aa:	c5 01       	movw	r24, r10
    17ac:	0e 94 84 13 	call	0x2708 <Get_Item>
    17b0:	bc 01       	movw	r22, r24
    17b2:	c3 01       	movw	r24, r6
    17b4:	0e 94 f7 1c 	call	0x39ee <strcpy>
					sprintf ( Line, "%d:", 1+ p->Menu.Sub *6 );
    17b8:	f5 01       	movw	r30, r10
    17ba:	87 81       	ldd	r24, Z+7	; 0x07
    17bc:	36 e0       	ldi	r19, 0x06	; 6
    17be:	d3 2e       	mov	r13, r19
    17c0:	8d 9d       	mul	r24, r13
    17c2:	c0 01       	movw	r24, r0
    17c4:	11 24       	eor	r1, r1
    17c6:	01 96       	adiw	r24, 0x01	; 1
    17c8:	9f 93       	push	r25
    17ca:	8f 93       	push	r24
    17cc:	23 eb       	ldi	r18, 0xB3	; 179
    17ce:	e2 2e       	mov	r14, r18
    17d0:	22 e0       	ldi	r18, 0x02	; 2
    17d2:	f2 2e       	mov	r15, r18
    17d4:	ff 92       	push	r15
    17d6:	ef 92       	push	r14
    17d8:	8e 01       	movw	r16, r28
    17da:	0f 5f       	subi	r16, 0xFF	; 255
    17dc:	1f 4f       	sbci	r17, 0xFF	; 255
    17de:	1f 93       	push	r17
    17e0:	0f 93       	push	r16
    17e2:	0e 94 fe 1c 	call	0x39fc <sprintf>
					LCD_Update ( COL1, ROW1, Line );
    17e6:	a8 01       	movw	r20, r16
    17e8:	60 e0       	ldi	r22, 0x00	; 0
    17ea:	86 2f       	mov	r24, r22
    17ec:	0e 94 4a 03 	call	0x694 <LCD_Update>
					sprintf ( Line +1, "%s", Get_Item ( p, str, VOLT_CELLS ));
    17f0:	43 e1       	ldi	r20, 0x13	; 19
    17f2:	b4 01       	movw	r22, r8
    17f4:	c5 01       	movw	r24, r10
    17f6:	0e 94 84 13 	call	0x2708 <Get_Item>
    17fa:	bc 01       	movw	r22, r24
    17fc:	c3 01       	movw	r24, r6
    17fe:	0e 94 f7 1c 	call	0x39ee <strcpy>
					sprintf ( Line, "%d:", 4+ p->Menu.Sub *6 );
    1802:	f5 01       	movw	r30, r10
    1804:	87 81       	ldd	r24, Z+7	; 0x07
    1806:	8d 9d       	mul	r24, r13
    1808:	c0 01       	movw	r24, r0
    180a:	11 24       	eor	r1, r1
    180c:	04 96       	adiw	r24, 0x04	; 4
    180e:	9f 93       	push	r25
    1810:	8f 93       	push	r24
    1812:	ff 92       	push	r15
    1814:	ef 92       	push	r14
    1816:	1f 93       	push	r17
    1818:	0f 93       	push	r16
    181a:	0e 94 fe 1c 	call	0x39fc <sprintf>
					LCD_Update ( COL1, ROW2, Line );
    181e:	a8 01       	movw	r20, r16
    1820:	61 e0       	ldi	r22, 0x01	; 1
    1822:	80 e0       	ldi	r24, 0x00	; 0
    1824:	0e 94 4a 03 	call	0x694 <LCD_Update>

					if ( p->Batt.Mode == MEASRUEMAN )
    1828:	f5 01       	movw	r30, r10
    182a:	83 85       	ldd	r24, Z+11	; 0x0b
    182c:	2d b7       	in	r18, 0x3d	; 61
    182e:	3e b7       	in	r19, 0x3e	; 62
    1830:	24 5f       	subi	r18, 0xF4	; 244
    1832:	3f 4f       	sbci	r19, 0xFF	; 255
    1834:	0f b6       	in	r0, 0x3f	; 63
    1836:	f8 94       	cli
    1838:	3e bf       	out	0x3e, r19	; 62
    183a:	0f be       	out	0x3f, r0	; 63
    183c:	2d bf       	out	0x3d, r18	; 61
    183e:	81 30       	cpi	r24, 0x01	; 1
    1840:	21 f5       	brne	.+72     	; 0x188a <Li_Battery_Function+0xb68>
					{
						if ( p->Menu.Toggle == OFF )
    1842:	81 85       	ldd	r24, Z+9	; 0x09
    1844:	85 fd       	sbrc	r24, 5
    1846:	09 c0       	rjmp	.+18     	; 0x185a <Li_Battery_Function+0xb38>
						{
						    if ( Detect_Cell_Volt ( p, str, OVER_DISCHARGE ))
    1848:	41 e1       	ldi	r20, 0x11	; 17
    184a:	b4 01       	movw	r22, r8
    184c:	c5 01       	movw	r24, r10
    184e:	0e 94 a6 1a 	call	0x354c <Detect_Cell_Volt>
    1852:	88 23       	and	r24, r24
    1854:	61 f0       	breq	.+24     	; 0x186e <Li_Battery_Function+0xb4c>
								p->Menu.Num = 12;
    1856:	8c e0       	ldi	r24, 0x0C	; 12
    1858:	08 c0       	rjmp	.+16     	; 0x186a <Li_Battery_Function+0xb48>
						}
						else	
						{
						    if ( Detect_Cell_Volt ( p, str, OVER_CHARGE ))						
    185a:	42 e1       	ldi	r20, 0x12	; 18
    185c:	b4 01       	movw	r22, r8
    185e:	c5 01       	movw	r24, r10
    1860:	0e 94 a6 1a 	call	0x354c <Detect_Cell_Volt>
    1864:	88 23       	and	r24, r24
    1866:	19 f0       	breq	.+6      	; 0x186e <Li_Battery_Function+0xb4c>
								p->Menu.Num = 13;
    1868:	8d e0       	ldi	r24, 0x0D	; 13
    186a:	f5 01       	movw	r30, r10
    186c:	86 83       	std	Z+6, r24	; 0x06
						}
						p->Menu.Key	= CLOSE;
    186e:	f5 01       	movw	r30, r10
    1870:	81 85       	ldd	r24, Z+9	; 0x09
						p->Menu.Toggle = ~p->Menu.Toggle;
    1872:	98 2f       	mov	r25, r24
    1874:	92 95       	swap	r25
    1876:	96 95       	lsr	r25
    1878:	97 70       	andi	r25, 0x07	; 7
    187a:	90 95       	com	r25
    187c:	91 70       	andi	r25, 0x01	; 1
    187e:	92 95       	swap	r25
    1880:	99 0f       	add	r25, r25
    1882:	90 7e       	andi	r25, 0xE0	; 224
    1884:	8f 75       	andi	r24, 0x5F	; 95
    1886:	89 2b       	or	r24, r25
    1888:	fd c0       	rjmp	.+506    	; 0x1a84 <Li_Battery_Function+0xd62>
					}
					else if (( p->Batt.Mode == AUTO_BALANCE )&&( p->Pmu.State == BAL_OVER ))
    188a:	82 30       	cpi	r24, 0x02	; 2
    188c:	09 f0       	breq	.+2      	; 0x1890 <Li_Battery_Function+0xb6e>
    188e:	fb c0       	rjmp	.+502    	; 0x1a86 <Li_Battery_Function+0xd64>
    1890:	27 e5       	ldi	r18, 0x57	; 87
    1892:	30 e0       	ldi	r19, 0x00	; 0
    1894:	a2 0e       	add	r10, r18
    1896:	b3 1e       	adc	r11, r19
    1898:	d5 01       	movw	r26, r10
    189a:	8c 91       	ld	r24, X
    189c:	e9 ea       	ldi	r30, 0xA9	; 169
    189e:	ff ef       	ldi	r31, 0xFF	; 255
    18a0:	ae 0e       	add	r10, r30
    18a2:	bf 1e       	adc	r11, r31
    18a4:	8c 30       	cpi	r24, 0x0C	; 12
    18a6:	09 f0       	breq	.+2      	; 0x18aa <Li_Battery_Function+0xb88>
    18a8:	ee c0       	rjmp	.+476    	; 0x1a86 <Li_Battery_Function+0xd64>
					{
						p->Menu.Num = 14;
    18aa:	8e e0       	ldi	r24, 0x0E	; 14
    18ac:	f5 01       	movw	r30, r10
    18ae:	86 83       	std	Z+6, r24	; 0x06
 						p->Menu.Key	= CLOSE;
    18b0:	81 85       	ldd	r24, Z+9	; 0x09
    18b2:	8f 77       	andi	r24, 0x7F	; 127
    18b4:	e7 c0       	rjmp	.+462    	; 0x1a84 <Li_Battery_Function+0xd62>
					}
					else ;
					break;

				case 11:
					sprintf ( Line, "%d ", 1+ p->Menu.Sub );
    18b6:	f5 01       	movw	r30, r10
    18b8:	87 81       	ldd	r24, Z+7	; 0x07
    18ba:	99 27       	eor	r25, r25
    18bc:	01 96       	adiw	r24, 0x01	; 1
    18be:	9f 93       	push	r25
    18c0:	8f 93       	push	r24
    18c2:	97 eb       	ldi	r25, 0xB7	; 183
    18c4:	e9 2e       	mov	r14, r25
    18c6:	92 e0       	ldi	r25, 0x02	; 2
    18c8:	f9 2e       	mov	r15, r25
    18ca:	ff 92       	push	r15
    18cc:	ef 92       	push	r14
    18ce:	4e 01       	movw	r8, r28
    18d0:	08 94       	sec
    18d2:	81 1c       	adc	r8, r1
    18d4:	91 1c       	adc	r9, r1
    18d6:	9f 92       	push	r9
    18d8:	8f 92       	push	r8
    18da:	0e 94 fe 1c 	call	0x39fc <sprintf>
					if ( p->Batt.Cycle.Form & D_C ) sprintf ( Line + 2, "DCHG" );
    18de:	f5 01       	movw	r30, r10
    18e0:	84 89       	ldd	r24, Z+20	; 0x14
    18e2:	2d b7       	in	r18, 0x3d	; 61
    18e4:	3e b7       	in	r19, 0x3e	; 62
    18e6:	2a 5f       	subi	r18, 0xFA	; 250
    18e8:	3f 4f       	sbci	r19, 0xFF	; 255
    18ea:	0f b6       	in	r0, 0x3f	; 63
    18ec:	f8 94       	cli
    18ee:	3e bf       	out	0x3e, r19	; 62
    18f0:	0f be       	out	0x3f, r0	; 63
    18f2:	2d bf       	out	0x3d, r18	; 61
    18f4:	de 01       	movw	r26, r28
    18f6:	13 96       	adiw	r26, 0x03	; 3
    18f8:	87 ff       	sbrs	r24, 7
    18fa:	04 c0       	rjmp	.+8      	; 0x1904 <Li_Battery_Function+0xbe2>
    18fc:	85 e0       	ldi	r24, 0x05	; 5
    18fe:	e2 e3       	ldi	r30, 0x32	; 50
    1900:	f2 e0       	ldi	r31, 0x02	; 2
    1902:	03 c0       	rjmp	.+6      	; 0x190a <Li_Battery_Function+0xbe8>
					else  							sprintf ( Line + 2, "CHG " );
    1904:	85 e0       	ldi	r24, 0x05	; 5
    1906:	eb eb       	ldi	r30, 0xBB	; 187
    1908:	f2 e0       	ldi	r31, 0x02	; 2
    190a:	01 90       	ld	r0, Z+
    190c:	0d 92       	st	X+, r0
    190e:	8a 95       	dec	r24
    1910:	e1 f7       	brne	.-8      	; 0x190a <Li_Battery_Function+0xbe8>
					sprintf ( Line + 6, "%s", Get_Item ( p, str, TIME_CAPACITY ));
    1912:	82 e1       	ldi	r24, 0x12	; 18
    1914:	c8 2e       	mov	r12, r24
    1916:	d1 2c       	mov	r13, r1
    1918:	cc 0e       	add	r12, r28
    191a:	dd 1e       	adc	r13, r29
    191c:	42 e1       	ldi	r20, 0x12	; 18
    191e:	b6 01       	movw	r22, r12
    1920:	c5 01       	movw	r24, r10
    1922:	0e 94 84 13 	call	0x2708 <Get_Item>
    1926:	8e 01       	movw	r16, r28
    1928:	09 5f       	subi	r16, 0xF9	; 249
    192a:	1f 4f       	sbci	r17, 0xFF	; 255
    192c:	bc 01       	movw	r22, r24
    192e:	c8 01       	movw	r24, r16
    1930:	0e 94 f7 1c 	call	0x39ee <strcpy>
					LCD_Update ( COL1, ROW1, Line );
    1934:	ae 01       	movw	r20, r28
    1936:	4f 5f       	subi	r20, 0xFF	; 255
    1938:	5f 4f       	sbci	r21, 0xFF	; 255
    193a:	60 e0       	ldi	r22, 0x00	; 0
    193c:	86 2f       	mov	r24, r22
    193e:	0e 94 4a 03 	call	0x694 <LCD_Update>
					sprintf ( Line, "%d ", 1+ p->Menu.Sub );
    1942:	f5 01       	movw	r30, r10
    1944:	87 81       	ldd	r24, Z+7	; 0x07
    1946:	99 27       	eor	r25, r25
    1948:	01 96       	adiw	r24, 0x01	; 1
    194a:	9f 93       	push	r25
    194c:	8f 93       	push	r24
    194e:	ff 92       	push	r15
    1950:	ef 92       	push	r14
    1952:	9f 92       	push	r9
    1954:	8f 92       	push	r8
    1956:	0e 94 fe 1c 	call	0x39fc <sprintf>
					if ( p->Batt.Cycle.Form & D_C ) sprintf ( Line + 2, "CHG " );
    195a:	f5 01       	movw	r30, r10
    195c:	84 89       	ldd	r24, Z+20	; 0x14
    195e:	2d b7       	in	r18, 0x3d	; 61
    1960:	3e b7       	in	r19, 0x3e	; 62
    1962:	2a 5f       	subi	r18, 0xFA	; 250
    1964:	3f 4f       	sbci	r19, 0xFF	; 255
    1966:	0f b6       	in	r0, 0x3f	; 63
    1968:	f8 94       	cli
    196a:	3e bf       	out	0x3e, r19	; 62
    196c:	0f be       	out	0x3f, r0	; 63
    196e:	2d bf       	out	0x3d, r18	; 61
    1970:	de 01       	movw	r26, r28
    1972:	13 96       	adiw	r26, 0x03	; 3
    1974:	87 ff       	sbrs	r24, 7
    1976:	04 c0       	rjmp	.+8      	; 0x1980 <Li_Battery_Function+0xc5e>
    1978:	85 e0       	ldi	r24, 0x05	; 5
    197a:	eb eb       	ldi	r30, 0xBB	; 187
    197c:	f2 e0       	ldi	r31, 0x02	; 2
    197e:	03 c0       	rjmp	.+6      	; 0x1986 <Li_Battery_Function+0xc64>
					else  							sprintf ( Line + 2, "DCHG" );
    1980:	85 e0       	ldi	r24, 0x05	; 5
    1982:	e2 e3       	ldi	r30, 0x32	; 50
    1984:	f2 e0       	ldi	r31, 0x02	; 2
    1986:	01 90       	ld	r0, Z+
    1988:	0d 92       	st	X+, r0
    198a:	8a 95       	dec	r24
    198c:	e1 f7       	brne	.-8      	; 0x1986 <Li_Battery_Function+0xc64>
					sprintf ( Line + 6, "%s", Get_Item ( p, str, TIME_CAPACITY ));;
    198e:	42 e1       	ldi	r20, 0x12	; 18
    1990:	b6 01       	movw	r22, r12
    1992:	c5 01       	movw	r24, r10
    1994:	0e 94 84 13 	call	0x2708 <Get_Item>
    1998:	bc 01       	movw	r22, r24
    199a:	c8 01       	movw	r24, r16
    199c:	0e 94 f7 1c 	call	0x39ee <strcpy>
					LCD_Update ( COL1, ROW2, Line );
    19a0:	ae 01       	movw	r20, r28
    19a2:	4f 5f       	subi	r20, 0xFF	; 255
    19a4:	5f 4f       	sbci	r21, 0xFF	; 255
    19a6:	61 e0       	ldi	r22, 0x01	; 1
    19a8:	80 e0       	ldi	r24, 0x00	; 0
    19aa:	0e 94 4a 03 	call	0x694 <LCD_Update>
					break;
    19ae:	6b c0       	rjmp	.+214    	; 0x1a86 <Li_Battery_Function+0xd64>

				case 12:
					sprintf ( Line, "CELL %s", str );
    19b0:	ce 01       	movw	r24, r28
    19b2:	42 96       	adiw	r24, 0x12	; 18
    19b4:	9f 93       	push	r25
    19b6:	8f 93       	push	r24
    19b8:	80 ec       	ldi	r24, 0xC0	; 192
    19ba:	92 e0       	ldi	r25, 0x02	; 2
    19bc:	9f 93       	push	r25
    19be:	8f 93       	push	r24
    19c0:	8e 01       	movw	r16, r28
    19c2:	0f 5f       	subi	r16, 0xFF	; 255
    19c4:	1f 4f       	sbci	r17, 0xFF	; 255
    19c6:	1f 93       	push	r17
    19c8:	0f 93       	push	r16
    19ca:	0e 94 fe 1c 	call	0x39fc <sprintf>
					LCD_Update ( COL1, ROW1, Line );
    19ce:	a8 01       	movw	r20, r16
    19d0:	60 e0       	ldi	r22, 0x00	; 0
    19d2:	86 2f       	mov	r24, r22
    19d4:	0e 94 4a 03 	call	0x694 <LCD_Update>
					sprintf ( Line, "%s", "Over Discharge" );
    19d8:	8f e0       	ldi	r24, 0x0F	; 15
    19da:	e8 ec       	ldi	r30, 0xC8	; 200
    19dc:	f2 e0       	ldi	r31, 0x02	; 2
    19de:	17 c0       	rjmp	.+46     	; 0x1a0e <Li_Battery_Function+0xcec>
					LCD_Update ( COL1, ROW2, Line );
					p->Menu.Key	= OPEN;
					break;

				case 13:
					sprintf ( Line, "CELL %s", str );
    19e0:	ce 01       	movw	r24, r28
    19e2:	42 96       	adiw	r24, 0x12	; 18
    19e4:	9f 93       	push	r25
    19e6:	8f 93       	push	r24
    19e8:	80 ec       	ldi	r24, 0xC0	; 192
    19ea:	92 e0       	ldi	r25, 0x02	; 2
    19ec:	9f 93       	push	r25
    19ee:	8f 93       	push	r24
    19f0:	8e 01       	movw	r16, r28
    19f2:	0f 5f       	subi	r16, 0xFF	; 255
    19f4:	1f 4f       	sbci	r17, 0xFF	; 255
    19f6:	1f 93       	push	r17
    19f8:	0f 93       	push	r16
    19fa:	0e 94 fe 1c 	call	0x39fc <sprintf>
					LCD_Update ( COL1, ROW1, Line );
    19fe:	a8 01       	movw	r20, r16
    1a00:	60 e0       	ldi	r22, 0x00	; 0
    1a02:	86 2f       	mov	r24, r22
    1a04:	0e 94 4a 03 	call	0x694 <LCD_Update>
					sprintf ( Line, "%s", "Over Charge" );
    1a08:	8c e0       	ldi	r24, 0x0C	; 12
    1a0a:	e7 ed       	ldi	r30, 0xD7	; 215
    1a0c:	f2 e0       	ldi	r31, 0x02	; 2
    1a0e:	d8 01       	movw	r26, r16
    1a10:	01 90       	ld	r0, Z+
    1a12:	0d 92       	st	X+, r0
    1a14:	8a 95       	dec	r24
    1a16:	e1 f7       	brne	.-8      	; 0x1a10 <Li_Battery_Function+0xcee>
					LCD_Update ( COL1, ROW2, Line );
    1a18:	a8 01       	movw	r20, r16
    1a1a:	61 e0       	ldi	r22, 0x01	; 1
    1a1c:	80 e0       	ldi	r24, 0x00	; 0
    1a1e:	0e 94 4a 03 	call	0x694 <LCD_Update>
					p->Menu.Key	= OPEN;
    1a22:	f5 01       	movw	r30, r10
    1a24:	81 85       	ldd	r24, Z+9	; 0x09
    1a26:	80 68       	ori	r24, 0x80	; 128
    1a28:	81 87       	std	Z+9, r24	; 0x09
					break;
    1a2a:	2d b7       	in	r18, 0x3d	; 61
    1a2c:	3e b7       	in	r19, 0x3e	; 62
    1a2e:	2a 5f       	subi	r18, 0xFA	; 250
    1a30:	3f 4f       	sbci	r19, 0xFF	; 255
    1a32:	0f b6       	in	r0, 0x3f	; 63
    1a34:	f8 94       	cli
    1a36:	3e bf       	out	0x3e, r19	; 62
    1a38:	0f be       	out	0x3f, r0	; 63
    1a3a:	2d bf       	out	0x3d, r18	; 61
    1a3c:	24 c0       	rjmp	.+72     	; 0x1a86 <Li_Battery_Function+0xd64>

				case 14:
					sprintf ( Line, "Battery Balanced" );
    1a3e:	8e 01       	movw	r16, r28
    1a40:	0f 5f       	subi	r16, 0xFF	; 255
    1a42:	1f 4f       	sbci	r17, 0xFF	; 255
    1a44:	81 e1       	ldi	r24, 0x11	; 17
    1a46:	e3 ee       	ldi	r30, 0xE3	; 227
    1a48:	f2 e0       	ldi	r31, 0x02	; 2
    1a4a:	d8 01       	movw	r26, r16
    1a4c:	01 90       	ld	r0, Z+
    1a4e:	0d 92       	st	X+, r0
    1a50:	8a 95       	dec	r24
    1a52:	e1 f7       	brne	.-8      	; 0x1a4c <Li_Battery_Function+0xd2a>
					LCD_Update ( COL1, ROW1, Line );
    1a54:	a8 01       	movw	r20, r16
    1a56:	60 e0       	ldi	r22, 0x00	; 0
    1a58:	86 2f       	mov	r24, r22
    1a5a:	0e 94 4a 03 	call	0x694 <LCD_Update>
					sprintf ( Line, "%s", Get_Item ( p, str, HIGH_LOW_CELL ));
    1a5e:	44 e1       	ldi	r20, 0x14	; 20
    1a60:	be 01       	movw	r22, r28
    1a62:	6e 5e       	subi	r22, 0xEE	; 238
    1a64:	7f 4f       	sbci	r23, 0xFF	; 255
    1a66:	c5 01       	movw	r24, r10
    1a68:	0e 94 84 13 	call	0x2708 <Get_Item>
    1a6c:	bc 01       	movw	r22, r24
    1a6e:	c8 01       	movw	r24, r16
    1a70:	0e 94 f7 1c 	call	0x39ee <strcpy>
					LCD_Update ( COL1, ROW2, Line );
    1a74:	a8 01       	movw	r20, r16
    1a76:	61 e0       	ldi	r22, 0x01	; 1
    1a78:	80 e0       	ldi	r24, 0x00	; 0
    1a7a:	0e 94 4a 03 	call	0x694 <LCD_Update>
					p->Menu.Key	= OPEN;
    1a7e:	f5 01       	movw	r30, r10
    1a80:	81 85       	ldd	r24, Z+9	; 0x09
					p->Menu.Num_Top = ON;
    1a82:	82 68       	ori	r24, 0x82	; 130
    1a84:	81 87       	std	Z+9, r24	; 0x09
    1a86:	a2 96       	adiw	r28, 0x22	; 34
    1a88:	0f b6       	in	r0, 0x3f	; 63
    1a8a:	f8 94       	cli
    1a8c:	de bf       	out	0x3e, r29	; 62
    1a8e:	0f be       	out	0x3f, r0	; 63
    1a90:	cd bf       	out	0x3d, r28	; 61
    1a92:	df 91       	pop	r29
    1a94:	cf 91       	pop	r28
    1a96:	1f 91       	pop	r17
    1a98:	0f 91       	pop	r16
    1a9a:	ff 90       	pop	r15
    1a9c:	ef 90       	pop	r14
    1a9e:	df 90       	pop	r13
    1aa0:	cf 90       	pop	r12
    1aa2:	bf 90       	pop	r11
    1aa4:	af 90       	pop	r10
    1aa6:	9f 90       	pop	r9
    1aa8:	8f 90       	pop	r8
    1aaa:	7f 90       	pop	r7
    1aac:	6f 90       	pop	r6
    1aae:	08 95       	ret

00001ab0 <Ni_Battery_Function>:
//-----------------------------------------------------------------------------
// Ni Battery Function Rountine
//-----------------------------------------------------------------------------
void Ni_Battery_Function ( PSTMSG p )
{
    1ab0:	8f 92       	push	r8
    1ab2:	9f 92       	push	r9
    1ab4:	af 92       	push	r10
    1ab6:	bf 92       	push	r11
    1ab8:	cf 92       	push	r12
    1aba:	df 92       	push	r13
    1abc:	ef 92       	push	r14
    1abe:	ff 92       	push	r15
    1ac0:	0f 93       	push	r16
    1ac2:	1f 93       	push	r17
    1ac4:	cf 93       	push	r28
    1ac6:	df 93       	push	r29
    1ac8:	cd b7       	in	r28, 0x3d	; 61
    1aca:	de b7       	in	r29, 0x3e	; 62
    1acc:	a2 97       	sbiw	r28, 0x22	; 34
    1ace:	0f b6       	in	r0, 0x3f	; 63
    1ad0:	f8 94       	cli
    1ad2:	de bf       	out	0x3e, r29	; 62
    1ad4:	0f be       	out	0x3f, r0	; 63
    1ad6:	cd bf       	out	0x3d, r28	; 61
    1ad8:	6c 01       	movw	r12, r24
	char Line[COLUMN_MAX +1] = "";
    1ada:	80 91 f4 02 	lds	r24, 0x02F4
    1ade:	89 83       	std	Y+1, r24	; 0x01
    1ae0:	90 e1       	ldi	r25, 0x10	; 16
    1ae2:	fe 01       	movw	r30, r28
    1ae4:	32 96       	adiw	r30, 0x02	; 2
    1ae6:	29 2f       	mov	r18, r25
    1ae8:	11 92       	st	Z+, r1
    1aea:	2a 95       	dec	r18
    1aec:	e9 f7       	brne	.-6      	; 0x1ae8 <Ni_Battery_Function+0x38>
	char str [COLUMN_MAX +1] = "";
    1aee:	8a 8b       	std	Y+18, r24	; 0x12
    1af0:	fe 01       	movw	r30, r28
    1af2:	73 96       	adiw	r30, 0x13	; 19
    1af4:	11 92       	st	Z+, r1
    1af6:	9a 95       	dec	r25
    1af8:	e9 f7       	brne	.-6      	; 0x1af4 <Ni_Battery_Function+0x44>

	switch ( p->Menu.Layer )
    1afa:	f6 01       	movw	r30, r12
    1afc:	85 81       	ldd	r24, Z+5	; 0x05
    1afe:	99 27       	eor	r25, r25
    1b00:	82 30       	cpi	r24, 0x02	; 2
    1b02:	91 05       	cpc	r25, r1
    1b04:	21 f0       	breq	.+8      	; 0x1b0e <Ni_Battery_Function+0x5e>
    1b06:	03 97       	sbiw	r24, 0x03	; 3
    1b08:	09 f4       	brne	.+2      	; 0x1b0c <Ni_Battery_Function+0x5c>
    1b0a:	fb c1       	rjmp	.+1014   	; 0x1f02 <Ni_Battery_Function+0x452>
    1b0c:	e2 c3       	rjmp	.+1988   	; 0x22d2 <Ni_Battery_Function+0x822>
	{
		case FUNCTION_LAYER:
			if ( p->Menu.Key == OPEN )
    1b0e:	f6 01       	movw	r30, r12
    1b10:	81 85       	ldd	r24, Z+9	; 0x09
    1b12:	87 ff       	sbrs	r24, 7
    1b14:	0c c0       	rjmp	.+24     	; 0x1b2e <Ni_Battery_Function+0x7e>
			{
				Menu_Scroll ( p, 5 );
    1b16:	65 e0       	ldi	r22, 0x05	; 5
    1b18:	c6 01       	movw	r24, r12
    1b1a:	0e 94 e8 1a 	call	0x35d0 <Menu_Scroll>
				if (( p->Menu.Update == UNNEED ) && ( p->Menu.Sub == 0 ))
    1b1e:	f6 01       	movw	r30, r12
    1b20:	91 85       	ldd	r25, Z+9	; 0x09
    1b22:	96 ff       	sbrs	r25, 6
    1b24:	04 c0       	rjmp	.+8      	; 0x1b2e <Ni_Battery_Function+0x7e>
    1b26:	87 81       	ldd	r24, Z+7	; 0x07
    1b28:	88 23       	and	r24, r24
    1b2a:	09 f4       	brne	.+2      	; 0x1b2e <Ni_Battery_Function+0x7e>
    1b2c:	52 c2       	rjmp	.+1188   	; 0x1fd2 <Ni_Battery_Function+0x522>
				    { p->Menu.Update = NEED;  break; }
			} 
			else ;
			//p->Key.n = FIFO_Clear ((unsigned char *) p->Key.FIFO, p->Key.n );
			if ( p->Menu.Sub ) p->Menu.Update = NEED; 	
    1b2e:	f6 01       	movw	r30, r12
    1b30:	87 81       	ldd	r24, Z+7	; 0x07
    1b32:	91 85       	ldd	r25, Z+9	; 0x09
    1b34:	88 23       	and	r24, r24
    1b36:	11 f0       	breq	.+4      	; 0x1b3c <Ni_Battery_Function+0x8c>
    1b38:	9f 7b       	andi	r25, 0xBF	; 191
    1b3a:	02 c0       	rjmp	.+4      	; 0x1b40 <Ni_Battery_Function+0x90>
			else p->Menu.Update = UNNEED;
    1b3c:	90 64       	ori	r25, 0x40	; 64
    1b3e:	f6 01       	movw	r30, r12
    1b40:	91 87       	std	Z+9, r25	; 0x09
			p->Menu.Key	= OPEN;
    1b42:	f6 01       	movw	r30, r12
    1b44:	81 85       	ldd	r24, Z+9	; 0x09
    1b46:	80 68       	ori	r24, 0x80	; 128
    1b48:	81 87       	std	Z+9, r24	; 0x09

			if 		( p->Batt.Type == NIMH ) sprintf ( Line, "%s", "NiMH" );
    1b4a:	82 85       	ldd	r24, Z+10	; 0x0a
    1b4c:	83 30       	cpi	r24, 0x03	; 3
    1b4e:	21 f4       	brne	.+8      	; 0x1b58 <Ni_Battery_Function+0xa8>
    1b50:	85 e0       	ldi	r24, 0x05	; 5
    1b52:	a5 e0       	ldi	r26, 0x05	; 5
    1b54:	b3 e0       	ldi	r27, 0x03	; 3
    1b56:	06 c0       	rjmp	.+12     	; 0x1b64 <Ni_Battery_Function+0xb4>
			else if ( p->Batt.Type == NICD ) sprintf ( Line, "%s", "NiCd" );
    1b58:	84 30       	cpi	r24, 0x04	; 4
    1b5a:	09 f0       	breq	.+2      	; 0x1b5e <Ni_Battery_Function+0xae>
    1b5c:	ba c3       	rjmp	.+1908   	; 0x22d2 <Ni_Battery_Function+0x822>
    1b5e:	85 e0       	ldi	r24, 0x05	; 5
    1b60:	aa e0       	ldi	r26, 0x0A	; 10
    1b62:	b3 e0       	ldi	r27, 0x03	; 3
    1b64:	fe 01       	movw	r30, r28
    1b66:	31 96       	adiw	r30, 0x01	; 1
    1b68:	0d 90       	ld	r0, X+
    1b6a:	01 92       	st	Z+, r0
    1b6c:	8a 95       	dec	r24
    1b6e:	e1 f7       	brne	.-8      	; 0x1b68 <Ni_Battery_Function+0xb8>
			else return;
			Battery_Limit_Set ((PSTLIMIT) &p->Batt.Limit, p->Batt.Type );
    1b70:	f6 01       	movw	r30, r12
    1b72:	62 85       	ldd	r22, Z+10	; 0x0a
    1b74:	c6 01       	movw	r24, r12
    1b76:	8c 96       	adiw	r24, 0x2c	; 44
    1b78:	0e 94 4e 1a 	call	0x349c <Battery_Limit_Set>
			switch ( p->Menu.Num )
    1b7c:	f6 01       	movw	r30, r12
    1b7e:	86 81       	ldd	r24, Z+6	; 0x06
    1b80:	99 27       	eor	r25, r25
    1b82:	83 30       	cpi	r24, 0x03	; 3
    1b84:	91 05       	cpc	r25, r1
    1b86:	09 f4       	brne	.+2      	; 0x1b8a <Ni_Battery_Function+0xda>
    1b88:	86 c0       	rjmp	.+268    	; 0x1c96 <Ni_Battery_Function+0x1e6>
    1b8a:	84 30       	cpi	r24, 0x04	; 4
    1b8c:	91 05       	cpc	r25, r1
    1b8e:	3c f4       	brge	.+14     	; 0x1b9e <Ni_Battery_Function+0xee>
    1b90:	81 30       	cpi	r24, 0x01	; 1
    1b92:	91 05       	cpc	r25, r1
    1b94:	61 f0       	breq	.+24     	; 0x1bae <Ni_Battery_Function+0xfe>
    1b96:	02 97       	sbiw	r24, 0x02	; 2
    1b98:	09 f4       	brne	.+2      	; 0x1b9c <Ni_Battery_Function+0xec>
    1b9a:	40 c0       	rjmp	.+128    	; 0x1c1c <Ni_Battery_Function+0x16c>
    1b9c:	9a c3       	rjmp	.+1844   	; 0x22d2 <Ni_Battery_Function+0x822>
    1b9e:	84 30       	cpi	r24, 0x04	; 4
    1ba0:	91 05       	cpc	r25, r1
    1ba2:	09 f4       	brne	.+2      	; 0x1ba6 <Ni_Battery_Function+0xf6>
    1ba4:	f1 c0       	rjmp	.+482    	; 0x1d88 <Ni_Battery_Function+0x2d8>
    1ba6:	05 97       	sbiw	r24, 0x05	; 5
    1ba8:	09 f4       	brne	.+2      	; 0x1bac <Ni_Battery_Function+0xfc>
    1baa:	26 c1       	rjmp	.+588    	; 0x1df8 <Ni_Battery_Function+0x348>
    1bac:	92 c3       	rjmp	.+1828   	; 0x22d2 <Ni_Battery_Function+0x822>
			{
				case 1:
					sprintf ( Line +4, "%12s", "CHARGE Aut" );
    1bae:	8f e0       	ldi	r24, 0x0F	; 15
    1bb0:	93 e0       	ldi	r25, 0x03	; 3
    1bb2:	9f 93       	push	r25
    1bb4:	8f 93       	push	r24
    1bb6:	5a e1       	ldi	r21, 0x1A	; 26
    1bb8:	e5 2e       	mov	r14, r21
    1bba:	53 e0       	ldi	r21, 0x03	; 3
    1bbc:	f5 2e       	mov	r15, r21
    1bbe:	ff 92       	push	r15
    1bc0:	ef 92       	push	r14
    1bc2:	8e 01       	movw	r16, r28
    1bc4:	0b 5f       	subi	r16, 0xFB	; 251
    1bc6:	1f 4f       	sbci	r17, 0xFF	; 255
    1bc8:	1f 93       	push	r17
    1bca:	0f 93       	push	r16
    1bcc:	0e 94 fe 1c 	call	0x39fc <sprintf>
					LCD_Update ( COL1, ROW1, Line );
    1bd0:	ae 01       	movw	r20, r28
    1bd2:	4f 5f       	subi	r20, 0xFF	; 255
    1bd4:	5f 4f       	sbci	r21, 0xFF	; 255
    1bd6:	60 e0       	ldi	r22, 0x00	; 0
    1bd8:	86 2f       	mov	r24, r22
    1bda:	0e 94 4a 03 	call	0x694 <LCD_Update>
					sprintf ( Line, "%s", Get_Item ( p, str, I_MA ));
    1bde:	42 e0       	ldi	r20, 0x02	; 2
    1be0:	be 01       	movw	r22, r28
    1be2:	6e 5e       	subi	r22, 0xEE	; 238
    1be4:	7f 4f       	sbci	r23, 0xFF	; 255
    1be6:	c6 01       	movw	r24, r12
    1be8:	0e 94 84 13 	call	0x2708 <Get_Item>
    1bec:	bc 01       	movw	r22, r24
    1bee:	ce 01       	movw	r24, r28
    1bf0:	01 96       	adiw	r24, 0x01	; 1
    1bf2:	0e 94 f7 1c 	call	0x39ee <strcpy>
					sprintf ( Line +4, "%12s", "CUR LIMIT" );
    1bf6:	8f e1       	ldi	r24, 0x1F	; 31
    1bf8:	93 e0       	ldi	r25, 0x03	; 3
    1bfa:	9f 93       	push	r25
    1bfc:	8f 93       	push	r24
    1bfe:	ff 92       	push	r15
    1c00:	ef 92       	push	r14
    1c02:	1f 93       	push	r17
    1c04:	0f 93       	push	r16
    1c06:	0e 94 fe 1c 	call	0x39fc <sprintf>
					LCD_Update ( COL1, ROW2, Line );
    1c0a:	ae 01       	movw	r20, r28
    1c0c:	4f 5f       	subi	r20, 0xFF	; 255
    1c0e:	5f 4f       	sbci	r21, 0xFF	; 255
    1c10:	61 e0       	ldi	r22, 0x01	; 1
    1c12:	80 e0       	ldi	r24, 0x00	; 0
    1c14:	0e 94 4a 03 	call	0x694 <LCD_Update>
					p->Batt.Mode = AUTO_CHARGE;
    1c18:	8a e0       	ldi	r24, 0x0A	; 10
    1c1a:	36 c0       	rjmp	.+108    	; 0x1c88 <Ni_Battery_Function+0x1d8>
					break;

				case 2:
					sprintf ( Line +4, "%12s", "CHARGE Man" );
    1c1c:	89 e2       	ldi	r24, 0x29	; 41
    1c1e:	93 e0       	ldi	r25, 0x03	; 3
    1c20:	9f 93       	push	r25
    1c22:	8f 93       	push	r24
    1c24:	4a e1       	ldi	r20, 0x1A	; 26
    1c26:	e4 2e       	mov	r14, r20
    1c28:	43 e0       	ldi	r20, 0x03	; 3
    1c2a:	f4 2e       	mov	r15, r20
    1c2c:	ff 92       	push	r15
    1c2e:	ef 92       	push	r14
    1c30:	8e 01       	movw	r16, r28
    1c32:	0b 5f       	subi	r16, 0xFB	; 251
    1c34:	1f 4f       	sbci	r17, 0xFF	; 255
    1c36:	1f 93       	push	r17
    1c38:	0f 93       	push	r16
    1c3a:	0e 94 fe 1c 	call	0x39fc <sprintf>
					LCD_Update ( COL1, ROW1, Line );
    1c3e:	ae 01       	movw	r20, r28
    1c40:	4f 5f       	subi	r20, 0xFF	; 255
    1c42:	5f 4f       	sbci	r21, 0xFF	; 255
    1c44:	60 e0       	ldi	r22, 0x00	; 0
    1c46:	86 2f       	mov	r24, r22
    1c48:	0e 94 4a 03 	call	0x694 <LCD_Update>
					sprintf ( Line, "%s", Get_Item ( p, str, I_MA ));
    1c4c:	42 e0       	ldi	r20, 0x02	; 2
    1c4e:	be 01       	movw	r22, r28
    1c50:	6e 5e       	subi	r22, 0xEE	; 238
    1c52:	7f 4f       	sbci	r23, 0xFF	; 255
    1c54:	c6 01       	movw	r24, r12
    1c56:	0e 94 84 13 	call	0x2708 <Get_Item>
    1c5a:	bc 01       	movw	r22, r24
    1c5c:	ce 01       	movw	r24, r28
    1c5e:	01 96       	adiw	r24, 0x01	; 1
    1c60:	0e 94 f7 1c 	call	0x39ee <strcpy>
					sprintf ( Line +4, "%12s", "CURRENT" );
    1c64:	84 e3       	ldi	r24, 0x34	; 52
    1c66:	93 e0       	ldi	r25, 0x03	; 3
    1c68:	9f 93       	push	r25
    1c6a:	8f 93       	push	r24
    1c6c:	ff 92       	push	r15
    1c6e:	ef 92       	push	r14
    1c70:	1f 93       	push	r17
    1c72:	0f 93       	push	r16
    1c74:	0e 94 fe 1c 	call	0x39fc <sprintf>
					LCD_Update ( COL1, ROW2, Line );
    1c78:	ae 01       	movw	r20, r28
    1c7a:	4f 5f       	subi	r20, 0xFF	; 255
    1c7c:	5f 4f       	sbci	r21, 0xFF	; 255
    1c7e:	61 e0       	ldi	r22, 0x01	; 1
    1c80:	80 e0       	ldi	r24, 0x00	; 0
    1c82:	0e 94 4a 03 	call	0x694 <LCD_Update>
					p->Batt.Mode = MANUAL_CHARGE;
    1c86:	8b e0       	ldi	r24, 0x0B	; 11
    1c88:	f6 01       	movw	r30, r12
    1c8a:	83 87       	std	Z+11, r24	; 0x0b
					break;
    1c8c:	2d b7       	in	r18, 0x3d	; 61
    1c8e:	3e b7       	in	r19, 0x3e	; 62
    1c90:	24 5f       	subi	r18, 0xF4	; 244
    1c92:	3f 4f       	sbci	r19, 0xFF	; 255
    1c94:	98 c2       	rjmp	.+1328   	; 0x21c6 <Ni_Battery_Function+0x716>

				case 3:
					sprintf ( Line +4, "%12s", "FORMING CHG" );
    1c96:	8c e3       	ldi	r24, 0x3C	; 60
    1c98:	93 e0       	ldi	r25, 0x03	; 3
    1c9a:	9f 93       	push	r25
    1c9c:	8f 93       	push	r24
    1c9e:	8a e1       	ldi	r24, 0x1A	; 26
    1ca0:	93 e0       	ldi	r25, 0x03	; 3
    1ca2:	9f 93       	push	r25
    1ca4:	8f 93       	push	r24
    1ca6:	ce 01       	movw	r24, r28
    1ca8:	05 96       	adiw	r24, 0x05	; 5
    1caa:	9f 93       	push	r25
    1cac:	8f 93       	push	r24
    1cae:	0e 94 fe 1c 	call	0x39fc <sprintf>
					LCD_Update ( COL1, ROW1, Line );
    1cb2:	ae 01       	movw	r20, r28
    1cb4:	4f 5f       	subi	r20, 0xFF	; 255
    1cb6:	5f 4f       	sbci	r21, 0xFF	; 255
    1cb8:	60 e0       	ldi	r22, 0x00	; 0
    1cba:	86 2f       	mov	r24, r22
    1cbc:	0e 94 4a 03 	call	0x694 <LCD_Update>
					sprintf ( Line, "%d.%dAH ", p->Batt.mAh /1000, ( p->Batt.mAh %1000 )/100 );
    1cc0:	f6 01       	movw	r30, r12
    1cc2:	86 85       	ldd	r24, Z+14	; 0x0e
    1cc4:	97 85       	ldd	r25, Z+15	; 0x0f
    1cc6:	68 ee       	ldi	r22, 0xE8	; 232
    1cc8:	73 e0       	ldi	r23, 0x03	; 3
    1cca:	0e 94 43 20 	call	0x4086 <__udivmodhi4>
    1cce:	64 e6       	ldi	r22, 0x64	; 100
    1cd0:	70 e0       	ldi	r23, 0x00	; 0
    1cd2:	0e 94 43 20 	call	0x4086 <__udivmodhi4>
    1cd6:	7f 93       	push	r23
    1cd8:	6f 93       	push	r22
    1cda:	86 85       	ldd	r24, Z+14	; 0x0e
    1cdc:	97 85       	ldd	r25, Z+15	; 0x0f
    1cde:	68 ee       	ldi	r22, 0xE8	; 232
    1ce0:	73 e0       	ldi	r23, 0x03	; 3
    1ce2:	0e 94 43 20 	call	0x4086 <__udivmodhi4>
    1ce6:	7f 93       	push	r23
    1ce8:	6f 93       	push	r22
    1cea:	88 e4       	ldi	r24, 0x48	; 72
    1cec:	93 e0       	ldi	r25, 0x03	; 3
    1cee:	9f 93       	push	r25
    1cf0:	8f 93       	push	r24
    1cf2:	7e 01       	movw	r14, r28
    1cf4:	08 94       	sec
    1cf6:	e1 1c       	adc	r14, r1
    1cf8:	f1 1c       	adc	r15, r1
    1cfa:	ff 92       	push	r15
    1cfc:	ef 92       	push	r14
    1cfe:	0e 94 fe 1c 	call	0x39fc <sprintf>
					sprintf ( str, "%2d.%d(%dS)", (	p->Batt.Limit.Volt_Level * p->Batt.Serial )/100,
    1d02:	f6 01       	movw	r30, r12
    1d04:	83 89       	ldd	r24, Z+19	; 0x13
    1d06:	99 27       	eor	r25, r25
    1d08:	9f 93       	push	r25
    1d0a:	8f 93       	push	r24
    1d0c:	94 a5       	ldd	r25, Z+44	; 0x2c
    1d0e:	83 89       	ldd	r24, Z+19	; 0x13
    1d10:	98 9f       	mul	r25, r24
    1d12:	c0 01       	movw	r24, r0
    1d14:	11 24       	eor	r1, r1
    1d16:	64 e6       	ldi	r22, 0x64	; 100
    1d18:	70 e0       	ldi	r23, 0x00	; 0
    1d1a:	0e 94 57 20 	call	0x40ae <__divmodhi4>
    1d1e:	6a e0       	ldi	r22, 0x0A	; 10
    1d20:	70 e0       	ldi	r23, 0x00	; 0
    1d22:	0e 94 57 20 	call	0x40ae <__divmodhi4>
    1d26:	7f 93       	push	r23
    1d28:	6f 93       	push	r22
    1d2a:	94 a5       	ldd	r25, Z+44	; 0x2c
    1d2c:	83 89       	ldd	r24, Z+19	; 0x13
    1d2e:	98 9f       	mul	r25, r24
    1d30:	c0 01       	movw	r24, r0
    1d32:	11 24       	eor	r1, r1
    1d34:	64 e6       	ldi	r22, 0x64	; 100
    1d36:	70 e0       	ldi	r23, 0x00	; 0
    1d38:	0e 94 57 20 	call	0x40ae <__divmodhi4>
    1d3c:	7f 93       	push	r23
    1d3e:	6f 93       	push	r22
    1d40:	81 e5       	ldi	r24, 0x51	; 81
    1d42:	93 e0       	ldi	r25, 0x03	; 3
    1d44:	9f 93       	push	r25
    1d46:	8f 93       	push	r24
    1d48:	8e 01       	movw	r16, r28
    1d4a:	0e 5e       	subi	r16, 0xEE	; 238
    1d4c:	1f 4f       	sbci	r17, 0xFF	; 255
    1d4e:	1f 93       	push	r17
    1d50:	0f 93       	push	r16
    1d52:	0e 94 fe 1c 	call	0x39fc <sprintf>
												 (( p->Batt.Limit.Volt_Level * p->Batt.Serial )%100 )/10,
													p->Batt.Serial );
					sprintf ( Line +6, "%10s", str );
    1d56:	1f 93       	push	r17
    1d58:	0f 93       	push	r16
    1d5a:	8d e5       	ldi	r24, 0x5D	; 93
    1d5c:	93 e0       	ldi	r25, 0x03	; 3
    1d5e:	9f 93       	push	r25
    1d60:	8f 93       	push	r24
    1d62:	ce 01       	movw	r24, r28
    1d64:	07 96       	adiw	r24, 0x07	; 7
    1d66:	9f 93       	push	r25
    1d68:	8f 93       	push	r24
    1d6a:	0e 94 fe 1c 	call	0x39fc <sprintf>
					LCD_Update ( COL1, ROW2, Line );
    1d6e:	a7 01       	movw	r20, r14
    1d70:	61 e0       	ldi	r22, 0x01	; 1
    1d72:	80 e0       	ldi	r24, 0x00	; 0
    1d74:	0e 94 4a 03 	call	0x694 <LCD_Update>
					p->Batt.Mode = FORMING_CHARGE;
    1d78:	8d e0       	ldi	r24, 0x0D	; 13
    1d7a:	f6 01       	movw	r30, r12
    1d7c:	83 87       	std	Z+11, r24	; 0x0b
					break;
    1d7e:	2d b7       	in	r18, 0x3d	; 61
    1d80:	3e b7       	in	r19, 0x3e	; 62
    1d82:	22 5e       	subi	r18, 0xE2	; 226
    1d84:	3f 4f       	sbci	r19, 0xFF	; 255
    1d86:	1f c2       	rjmp	.+1086   	; 0x21c6 <Ni_Battery_Function+0x716>

				case 4:
					sprintf ( Line +4, "%12s", "DISCHARGE" );
    1d88:	82 e6       	ldi	r24, 0x62	; 98
    1d8a:	93 e0       	ldi	r25, 0x03	; 3
    1d8c:	9f 93       	push	r25
    1d8e:	8f 93       	push	r24
    1d90:	8a e1       	ldi	r24, 0x1A	; 26
    1d92:	93 e0       	ldi	r25, 0x03	; 3
    1d94:	9f 93       	push	r25
    1d96:	8f 93       	push	r24
    1d98:	8e 01       	movw	r16, r28
    1d9a:	0b 5f       	subi	r16, 0xFB	; 251
    1d9c:	1f 4f       	sbci	r17, 0xFF	; 255
    1d9e:	1f 93       	push	r17
    1da0:	0f 93       	push	r16
    1da2:	0e 94 fe 1c 	call	0x39fc <sprintf>
					LCD_Update ( COL1, ROW1, Line );
    1da6:	ae 01       	movw	r20, r28
    1da8:	4f 5f       	subi	r20, 0xFF	; 255
    1daa:	5f 4f       	sbci	r21, 0xFF	; 255
    1dac:	60 e0       	ldi	r22, 0x00	; 0
    1dae:	86 2f       	mov	r24, r22
    1db0:	0e 94 4a 03 	call	0x694 <LCD_Update>
					sprintf ( Line, "%s", Get_Item ( p, str, I_MA ));
    1db4:	42 e0       	ldi	r20, 0x02	; 2
    1db6:	be 01       	movw	r22, r28
    1db8:	6e 5e       	subi	r22, 0xEE	; 238
    1dba:	7f 4f       	sbci	r23, 0xFF	; 255
    1dbc:	c6 01       	movw	r24, r12
    1dbe:	0e 94 84 13 	call	0x2708 <Get_Item>
    1dc2:	bc 01       	movw	r22, r24
    1dc4:	ce 01       	movw	r24, r28
    1dc6:	01 96       	adiw	r24, 0x01	; 1
    1dc8:	0e 94 f7 1c 	call	0x39ee <strcpy>
					sprintf ( Line +4, "%12d", p->Batt.Volt );
    1dcc:	f6 01       	movw	r30, r12
    1dce:	80 89       	ldd	r24, Z+16	; 0x10
    1dd0:	91 89       	ldd	r25, Z+17	; 0x11
    1dd2:	9f 93       	push	r25
    1dd4:	8f 93       	push	r24
    1dd6:	8c e6       	ldi	r24, 0x6C	; 108
    1dd8:	93 e0       	ldi	r25, 0x03	; 3
    1dda:	9f 93       	push	r25
    1ddc:	8f 93       	push	r24
    1dde:	1f 93       	push	r17
    1de0:	0f 93       	push	r16
    1de2:	0e 94 fe 1c 	call	0x39fc <sprintf>
					LCD_Update ( COL1, ROW2, Line );
    1de6:	ae 01       	movw	r20, r28
    1de8:	4f 5f       	subi	r20, 0xFF	; 255
    1dea:	5f 4f       	sbci	r21, 0xFF	; 255
    1dec:	61 e0       	ldi	r22, 0x01	; 1
    1dee:	80 e0       	ldi	r24, 0x00	; 0
    1df0:	0e 94 4a 03 	call	0x694 <LCD_Update>
					p->Batt.Mode = DISCHARGE;
    1df4:	86 e0       	ldi	r24, 0x06	; 6
    1df6:	48 cf       	rjmp	.-368    	; 0x1c88 <Ni_Battery_Function+0x1d8>
					break;

				case 5:
					sprintf ( Line +4, " %s", "CYCLE" );
    1df8:	81 e7       	ldi	r24, 0x71	; 113
    1dfa:	93 e0       	ldi	r25, 0x03	; 3
    1dfc:	9f 93       	push	r25
    1dfe:	8f 93       	push	r24
    1e00:	87 e7       	ldi	r24, 0x77	; 119
    1e02:	93 e0       	ldi	r25, 0x03	; 3
    1e04:	9f 93       	push	r25
    1e06:	8f 93       	push	r24
    1e08:	8e 01       	movw	r16, r28
    1e0a:	0b 5f       	subi	r16, 0xFB	; 251
    1e0c:	1f 4f       	sbci	r17, 0xFF	; 255
    1e0e:	1f 93       	push	r17
    1e10:	0f 93       	push	r16
    1e12:	0e 94 fe 1c 	call	0x39fc <sprintf>
					sprintf ( str, "    %d", ( TIMES & p->Batt.Cycle.Form ));
    1e16:	f6 01       	movw	r30, r12
    1e18:	84 89       	ldd	r24, Z+20	; 0x14
    1e1a:	99 27       	eor	r25, r25
    1e1c:	87 70       	andi	r24, 0x07	; 7
    1e1e:	90 70       	andi	r25, 0x00	; 0
    1e20:	9f 93       	push	r25
    1e22:	8f 93       	push	r24
    1e24:	8b e7       	ldi	r24, 0x7B	; 123
    1e26:	93 e0       	ldi	r25, 0x03	; 3
    1e28:	9f 93       	push	r25
    1e2a:	8f 93       	push	r24
    1e2c:	ce 01       	movw	r24, r28
    1e2e:	42 96       	adiw	r24, 0x12	; 18
    1e30:	9f 93       	push	r25
    1e32:	8f 93       	push	r24
    1e34:	0e 94 fe 1c 	call	0x39fc <sprintf>
					LCD_Update ( COL1, ROW1, Line );
    1e38:	ae 01       	movw	r20, r28
    1e3a:	4f 5f       	subi	r20, 0xFF	; 255
    1e3c:	5f 4f       	sbci	r21, 0xFF	; 255
    1e3e:	60 e0       	ldi	r22, 0x00	; 0
    1e40:	86 2f       	mov	r24, r22
    1e42:	0e 94 4a 03 	call	0x694 <LCD_Update>
					if ( D_C & p->Batt.Cycle.Form )
    1e46:	f6 01       	movw	r30, r12
    1e48:	84 89       	ldd	r24, Z+20	; 0x14
    1e4a:	2d b7       	in	r18, 0x3d	; 61
    1e4c:	3e b7       	in	r19, 0x3e	; 62
    1e4e:	24 5f       	subi	r18, 0xF4	; 244
    1e50:	3f 4f       	sbci	r19, 0xFF	; 255
    1e52:	0f b6       	in	r0, 0x3f	; 63
    1e54:	f8 94       	cli
    1e56:	3e bf       	out	0x3e, r19	; 62
    1e58:	0f be       	out	0x3f, r0	; 63
    1e5a:	2d bf       	out	0x3d, r18	; 61
    1e5c:	28 2f       	mov	r18, r24
    1e5e:	33 27       	eor	r19, r19
    1e60:	87 ff       	sbrs	r24, 7
    1e62:	24 c0       	rjmp	.+72     	; 0x1eac <Ni_Battery_Function+0x3fc>
					{
						sprintf ( Line, "%s", "DCHG" );
    1e64:	be 01       	movw	r22, r28
    1e66:	6f 5f       	subi	r22, 0xFF	; 255
    1e68:	7f 4f       	sbci	r23, 0xFF	; 255
    1e6a:	85 e0       	ldi	r24, 0x05	; 5
    1e6c:	42 e8       	ldi	r20, 0x82	; 130
    1e6e:	53 e0       	ldi	r21, 0x03	; 3
    1e70:	db 01       	movw	r26, r22
    1e72:	fa 01       	movw	r30, r20
    1e74:	01 90       	ld	r0, Z+
    1e76:	0d 92       	st	X+, r0
    1e78:	8a 95       	dec	r24
    1e7a:	e1 f7       	brne	.-8      	; 0x1e74 <Ni_Battery_Function+0x3c4>
						if ( AUTO_MODE & p->Batt.Cycle.Form ) sprintf ( Line +4, "%s", "(AUT)" );
    1e7c:	26 ff       	sbrs	r18, 6
    1e7e:	04 c0       	rjmp	.+8      	; 0x1e88 <Ni_Battery_Function+0x3d8>
    1e80:	86 e0       	ldi	r24, 0x06	; 6
    1e82:	27 e8       	ldi	r18, 0x87	; 135
    1e84:	33 e0       	ldi	r19, 0x03	; 3
    1e86:	03 c0       	rjmp	.+6      	; 0x1e8e <Ni_Battery_Function+0x3de>
						else  								  sprintf ( Line +4, "%s", "(MAN)" );
    1e88:	86 e0       	ldi	r24, 0x06	; 6
    1e8a:	2d e8       	ldi	r18, 0x8D	; 141
    1e8c:	33 e0       	ldi	r19, 0x03	; 3
    1e8e:	d8 01       	movw	r26, r16
    1e90:	f9 01       	movw	r30, r18
    1e92:	01 90       	ld	r0, Z+
    1e94:	0d 92       	st	X+, r0
    1e96:	8a 95       	dec	r24
    1e98:	e1 f7       	brne	.-8      	; 0x1e92 <Ni_Battery_Function+0x3e2>
						sprintf ( Line, "%s", "->CHG" );
    1e9a:	86 e0       	ldi	r24, 0x06	; 6
    1e9c:	e3 e9       	ldi	r30, 0x93	; 147
    1e9e:	f3 e0       	ldi	r31, 0x03	; 3
    1ea0:	db 01       	movw	r26, r22
    1ea2:	01 90       	ld	r0, Z+
    1ea4:	0d 92       	st	X+, r0
    1ea6:	8a 95       	dec	r24
    1ea8:	e1 f7       	brne	.-8      	; 0x1ea2 <Ni_Battery_Function+0x3f2>
    1eaa:	20 c0       	rjmp	.+64     	; 0x1eec <Ni_Battery_Function+0x43c>
					}
					else 
					{
						sprintf ( Line, "%s", "CHG" );
    1eac:	83 e4       	ldi	r24, 0x43	; 67
    1eae:	98 e4       	ldi	r25, 0x48	; 72
    1eb0:	a7 e4       	ldi	r26, 0x47	; 71
    1eb2:	b0 e0       	ldi	r27, 0x00	; 0
    1eb4:	89 83       	std	Y+1, r24	; 0x01
    1eb6:	9a 83       	std	Y+2, r25	; 0x02
    1eb8:	ab 83       	std	Y+3, r26	; 0x03
    1eba:	bc 83       	std	Y+4, r27	; 0x04
    1ebc:	de 01       	movw	r26, r28
    1ebe:	14 96       	adiw	r26, 0x04	; 4
						if ( AUTO_MODE & p->Batt.Cycle.Form ) sprintf ( Line +3, "%s", "(AUT)" );
    1ec0:	26 ff       	sbrs	r18, 6
    1ec2:	04 c0       	rjmp	.+8      	; 0x1ecc <Ni_Battery_Function+0x41c>
    1ec4:	86 e0       	ldi	r24, 0x06	; 6
    1ec6:	e7 e8       	ldi	r30, 0x87	; 135
    1ec8:	f3 e0       	ldi	r31, 0x03	; 3
    1eca:	03 c0       	rjmp	.+6      	; 0x1ed2 <Ni_Battery_Function+0x422>
						else  								  sprintf ( Line +3, "%s", "(MAN)" );
    1ecc:	86 e0       	ldi	r24, 0x06	; 6
    1ece:	ed e8       	ldi	r30, 0x8D	; 141
    1ed0:	f3 e0       	ldi	r31, 0x03	; 3
    1ed2:	01 90       	ld	r0, Z+
    1ed4:	0d 92       	st	X+, r0
    1ed6:	8a 95       	dec	r24
    1ed8:	e1 f7       	brne	.-8      	; 0x1ed2 <Ni_Battery_Function+0x422>
						sprintf ( Line, "%s", "->DCHG" );
    1eda:	87 e0       	ldi	r24, 0x07	; 7
    1edc:	a9 e9       	ldi	r26, 0x99	; 153
    1ede:	b3 e0       	ldi	r27, 0x03	; 3
    1ee0:	fe 01       	movw	r30, r28
    1ee2:	31 96       	adiw	r30, 0x01	; 1
    1ee4:	0d 90       	ld	r0, X+
    1ee6:	01 92       	st	Z+, r0
    1ee8:	8a 95       	dec	r24
    1eea:	e1 f7       	brne	.-8      	; 0x1ee4 <Ni_Battery_Function+0x434>
					}
					LCD_Update ( COL1, ROW2, Line );
    1eec:	ae 01       	movw	r20, r28
    1eee:	4f 5f       	subi	r20, 0xFF	; 255
    1ef0:	5f 4f       	sbci	r21, 0xFF	; 255
    1ef2:	61 e0       	ldi	r22, 0x01	; 1
    1ef4:	80 e0       	ldi	r24, 0x00	; 0
    1ef6:	0e 94 4a 03 	call	0x694 <LCD_Update>
					p->Batt.Mode = CYCLE;
    1efa:	88 e0       	ldi	r24, 0x08	; 8
    1efc:	f6 01       	movw	r30, r12
    1efe:	83 87       	std	Z+11, r24	; 0x0b
    1f00:	e5 c1       	rjmp	.+970    	; 0x22cc <Ni_Battery_Function+0x81c>
					p->Menu.Num_Top = ON;
					break;

				default:
					break;
			}
			break;

		case OPERATE_LAYER:
			if ( p->Menu.Key == OPEN )
    1f02:	f6 01       	movw	r30, r12
    1f04:	81 85       	ldd	r24, Z+9	; 0x09
    1f06:	87 ff       	sbrs	r24, 7
    1f08:	67 c0       	rjmp	.+206    	; 0x1fd8 <Ni_Battery_Function+0x528>
			{
				p->Menu.Update = NEED;
    1f0a:	8f 7b       	andi	r24, 0xBF	; 191
    1f0c:	81 87       	std	Z+9, r24	; 0x09
				if ( p->Key.FIFO[0] & (ON<<KEY_STOP))
    1f0e:	33 e8       	ldi	r19, 0x83	; 131
    1f10:	e3 2e       	mov	r14, r19
    1f12:	f1 2c       	mov	r15, r1
    1f14:	ec 0c       	add	r14, r12
    1f16:	fd 1c       	adc	r15, r13
    1f18:	d7 01       	movw	r26, r14
    1f1a:	9c 91       	ld	r25, X
    1f1c:	97 ff       	sbrs	r25, 7
    1f1e:	11 c0       	rjmp	.+34     	; 0x1f42 <Ni_Battery_Function+0x492>
				{
					if 		( p->Pmu.State == NORM_RUN ) p->Pmu.State = FORCE_STOP;
    1f20:	e9 5a       	subi	r30, 0xA9	; 169
    1f22:	ff 4f       	sbci	r31, 0xFF	; 255
    1f24:	90 81       	ld	r25, Z
    1f26:	92 30       	cpi	r25, 0x02	; 2
    1f28:	19 f4       	brne	.+6      	; 0x1f30 <Ni_Battery_Function+0x480>
    1f2a:	88 e0       	ldi	r24, 0x08	; 8
    1f2c:	80 83       	st	Z, r24
    1f2e:	40 c0       	rjmp	.+128    	; 0x1fb0 <Ni_Battery_Function+0x500>
					else if ( p->Pmu.State == NORM_STOP ) 
    1f30:	96 30       	cpi	r25, 0x06	; 6
    1f32:	d9 f5       	brne	.+118    	; 0x1faa <Ni_Battery_Function+0x4fa>
						Menu_Jump ( p, OPERATE_LAYER - ONE_LAYER, p->Batt.Mode );
    1f34:	f6 01       	movw	r30, r12
    1f36:	43 85       	ldd	r20, Z+11	; 0x0b
    1f38:	62 e0       	ldi	r22, 0x02	; 2
    1f3a:	c6 01       	movw	r24, r12
    1f3c:	0e 94 df 03 	call	0x7be <Menu_Jump>
    1f40:	37 c0       	rjmp	.+110    	; 0x1fb0 <Ni_Battery_Function+0x500>
					else  p->Menu.Update = UNNEED;
				}
				else if ( p->Key.FIFO[0] == (ON<<KEY_INC))
    1f42:	90 34       	cpi	r25, 0x40	; 64
    1f44:	91 f5       	brne	.+100    	; 0x1faa <Ni_Battery_Function+0x4fa>
				{
					if (( p->Batt.Mode == CYCLE ) && ( p->Pmu.State == CYCLE_WAIT ))
    1f46:	f6 01       	movw	r30, r12
    1f48:	83 85       	ldd	r24, Z+11	; 0x0b
    1f4a:	88 30       	cpi	r24, 0x08	; 8
    1f4c:	51 f5       	brne	.+84     	; 0x1fa2 <Ni_Battery_Function+0x4f2>
    1f4e:	27 e5       	ldi	r18, 0x57	; 87
    1f50:	30 e0       	ldi	r19, 0x00	; 0
    1f52:	c2 0e       	add	r12, r18
    1f54:	d3 1e       	adc	r13, r19
    1f56:	d6 01       	movw	r26, r12
    1f58:	8c 91       	ld	r24, X
    1f5a:	e9 ea       	ldi	r30, 0xA9	; 169
    1f5c:	ff ef       	ldi	r31, 0xFF	; 255
    1f5e:	ce 0e       	add	r12, r30
    1f60:	df 1e       	adc	r13, r31
    1f62:	87 30       	cpi	r24, 0x07	; 7
    1f64:	f1 f4       	brne	.+60     	; 0x1fa2 <Ni_Battery_Function+0x4f2>
						if ( p->Menu.Num == 1 ) { p->Menu.Num = 2;  p->Menu.Sub = 0; }
    1f66:	f6 01       	movw	r30, r12
    1f68:	86 81       	ldd	r24, Z+6	; 0x06
    1f6a:	81 30       	cpi	r24, 0x01	; 1
    1f6c:	21 f4       	brne	.+8      	; 0x1f76 <Ni_Battery_Function+0x4c6>
    1f6e:	82 e0       	ldi	r24, 0x02	; 2
    1f70:	86 83       	std	Z+6, r24	; 0x06
    1f72:	17 82       	std	Z+7, r1	; 0x07
    1f74:	1d c0       	rjmp	.+58     	; 0x1fb0 <Ni_Battery_Function+0x500>
						else if ( p->Menu.Sub < p->Cycle.n ) p->Menu.Sub++;
    1f76:	f6 01       	movw	r30, r12
    1f78:	97 81       	ldd	r25, Z+7	; 0x07
    1f7a:	28 e4       	ldi	r18, 0x48	; 72
    1f7c:	30 e0       	ldi	r19, 0x00	; 0
    1f7e:	c2 0e       	add	r12, r18
    1f80:	d3 1e       	adc	r13, r19
    1f82:	d6 01       	movw	r26, r12
    1f84:	8c 91       	ld	r24, X
    1f86:	e8 eb       	ldi	r30, 0xB8	; 184
    1f88:	ff ef       	ldi	r31, 0xFF	; 255
    1f8a:	ce 0e       	add	r12, r30
    1f8c:	df 1e       	adc	r13, r31
    1f8e:	98 17       	cp	r25, r24
    1f90:	20 f4       	brcc	.+8      	; 0x1f9a <Ni_Battery_Function+0x4ea>
    1f92:	9f 5f       	subi	r25, 0xFF	; 255
    1f94:	f6 01       	movw	r30, r12
    1f96:	97 83       	std	Z+7, r25	; 0x07
    1f98:	0b c0       	rjmp	.+22     	; 0x1fb0 <Ni_Battery_Function+0x500>
						else p->Menu.Num = 1;
    1f9a:	81 e0       	ldi	r24, 0x01	; 1
    1f9c:	f6 01       	movw	r30, r12
    1f9e:	86 83       	std	Z+6, r24	; 0x06
    1fa0:	07 c0       	rjmp	.+14     	; 0x1fb0 <Ni_Battery_Function+0x500>
					else p->Menu.Update = UNNEED;
    1fa2:	f6 01       	movw	r30, r12
    1fa4:	81 85       	ldd	r24, Z+9	; 0x09
    1fa6:	80 64       	ori	r24, 0x40	; 64
    1fa8:	02 c0       	rjmp	.+4      	; 0x1fae <Ni_Battery_Function+0x4fe>
				}
				else p->Menu.Update = UNNEED;
    1faa:	80 64       	ori	r24, 0x40	; 64
    1fac:	f6 01       	movw	r30, r12
    1fae:	81 87       	std	Z+9, r24	; 0x09
				p->Key.n = FIFO_Pop ((unsigned char *) p->Key.FIFO, p->Key.n );
    1fb0:	86 01       	movw	r16, r12
    1fb2:	03 57       	subi	r16, 0x73	; 115
    1fb4:	1f 4f       	sbci	r17, 0xFF	; 255
    1fb6:	d8 01       	movw	r26, r16
    1fb8:	6c 91       	ld	r22, X
    1fba:	c7 01       	movw	r24, r14
    1fbc:	0e 94 42 06 	call	0xc84 <FIFO_Pop>
    1fc0:	f8 01       	movw	r30, r16
    1fc2:	80 83       	st	Z, r24
				if (( p->Menu.Update == UNNEED )&&( p->Menu.Num != 1 ))
    1fc4:	f6 01       	movw	r30, r12
    1fc6:	91 85       	ldd	r25, Z+9	; 0x09
    1fc8:	96 ff       	sbrs	r25, 6
    1fca:	06 c0       	rjmp	.+12     	; 0x1fd8 <Ni_Battery_Function+0x528>
    1fcc:	86 81       	ldd	r24, Z+6	; 0x06
    1fce:	81 30       	cpi	r24, 0x01	; 1
    1fd0:	19 f0       	breq	.+6      	; 0x1fd8 <Ni_Battery_Function+0x528>
				    { p->Menu.Update = NEED;  break; }
    1fd2:	9f 7b       	andi	r25, 0xBF	; 191
    1fd4:	91 87       	std	Z+9, r25	; 0x09
    1fd6:	7d c1       	rjmp	.+762    	; 0x22d2 <Ni_Battery_Function+0x822>
			} 
			else ;
			p->Key.n = FIFO_Clear ((unsigned char *) p->Key.FIFO, p->Key.n );
    1fd8:	86 01       	movw	r16, r12
    1fda:	03 57       	subi	r16, 0x73	; 115
    1fdc:	1f 4f       	sbci	r17, 0xFF	; 255
    1fde:	d8 01       	movw	r26, r16
    1fe0:	6c 91       	ld	r22, X
    1fe2:	c6 01       	movw	r24, r12
    1fe4:	8d 57       	subi	r24, 0x7D	; 125
    1fe6:	9f 4f       	sbci	r25, 0xFF	; 255
    1fe8:	0e 94 2e 06 	call	0xc5c <FIFO_Clear>
    1fec:	f8 01       	movw	r30, r16
    1fee:	80 83       	st	Z, r24
			p->Menu.Update = UNNEED;
    1ff0:	f6 01       	movw	r30, r12
    1ff2:	21 85       	ldd	r18, Z+9	; 0x09
			p->Menu.Key	= OPEN;
    1ff4:	20 6c       	ori	r18, 0xC0	; 192
    1ff6:	21 87       	std	Z+9, r18	; 0x09
			switch ( p->Menu.Num )
    1ff8:	86 81       	ldd	r24, Z+6	; 0x06
    1ffa:	99 27       	eor	r25, r25
    1ffc:	81 30       	cpi	r24, 0x01	; 1
    1ffe:	91 05       	cpc	r25, r1
    2000:	21 f0       	breq	.+8      	; 0x200a <Ni_Battery_Function+0x55a>
    2002:	02 97       	sbiw	r24, 0x02	; 2
    2004:	09 f4       	brne	.+2      	; 0x2008 <Ni_Battery_Function+0x558>
    2006:	e5 c0       	rjmp	.+458    	; 0x21d2 <Ni_Battery_Function+0x722>
    2008:	64 c1       	rjmp	.+712    	; 0x22d2 <Ni_Battery_Function+0x822>
			{
				case 1:
					if ( p->Menu.Toggle == OFF ) 
    200a:	25 fd       	sbrc	r18, 5
    200c:	11 c0       	rjmp	.+34     	; 0x2030 <Ni_Battery_Function+0x580>
						if ( p->Batt.Type == NIMH ) sprintf ( Line, "%s", "NiMH" );
    200e:	f6 01       	movw	r30, r12
    2010:	82 85       	ldd	r24, Z+10	; 0x0a
    2012:	de 01       	movw	r26, r28
    2014:	11 96       	adiw	r26, 0x01	; 1
    2016:	83 30       	cpi	r24, 0x03	; 3
    2018:	21 f4       	brne	.+8      	; 0x2022 <Ni_Battery_Function+0x572>
    201a:	85 e0       	ldi	r24, 0x05	; 5
    201c:	e5 e0       	ldi	r30, 0x05	; 5
    201e:	f3 e0       	ldi	r31, 0x03	; 3
    2020:	03 c0       	rjmp	.+6      	; 0x2028 <Ni_Battery_Function+0x578>
						else					    sprintf ( Line, "%s", "NiCd" );	
    2022:	85 e0       	ldi	r24, 0x05	; 5
    2024:	ea e0       	ldi	r30, 0x0A	; 10
    2026:	f3 e0       	ldi	r31, 0x03	; 3
    2028:	01 90       	ld	r0, Z+
    202a:	0d 92       	st	X+, r0
    202c:	8a 95       	dec	r24
    202e:	e1 f7       	brne	.-8      	; 0x2028 <Ni_Battery_Function+0x578>
					else ;
					if ( p->Pmu.State == NORM_PAUSE ) 
    2030:	96 01       	movw	r18, r12
    2032:	29 5a       	subi	r18, 0xA9	; 169
    2034:	3f 4f       	sbci	r19, 0xFF	; 255
    2036:	d9 01       	movw	r26, r18
    2038:	8c 91       	ld	r24, X
    203a:	83 30       	cpi	r24, 0x03	; 3
    203c:	d9 f4       	brne	.+54     	; 0x2074 <Ni_Battery_Function+0x5c4>
					{
						if ( p->Menu.Toggle == ON ) sprintf ( Line, "%s", "WAIT" );
    203e:	f6 01       	movw	r30, r12
    2040:	81 85       	ldd	r24, Z+9	; 0x09
    2042:	85 ff       	sbrs	r24, 5
    2044:	09 c0       	rjmp	.+18     	; 0x2058 <Ni_Battery_Function+0x5a8>
    2046:	85 e0       	ldi	r24, 0x05	; 5
    2048:	a0 ea       	ldi	r26, 0xA0	; 160
    204a:	b3 e0       	ldi	r27, 0x03	; 3
    204c:	fe 01       	movw	r30, r28
    204e:	31 96       	adiw	r30, 0x01	; 1
    2050:	0d 90       	ld	r0, X+
    2052:	01 92       	st	Z+, r0
    2054:	8a 95       	dec	r24
    2056:	e1 f7       	brne	.-8      	; 0x2050 <Ni_Battery_Function+0x5a0>
						p->Menu.Toggle = ~p->Menu.Toggle;
    2058:	f6 01       	movw	r30, r12
    205a:	81 85       	ldd	r24, Z+9	; 0x09
    205c:	98 2f       	mov	r25, r24
    205e:	92 95       	swap	r25
    2060:	96 95       	lsr	r25
    2062:	97 70       	andi	r25, 0x07	; 7
    2064:	90 95       	com	r25
    2066:	91 70       	andi	r25, 0x01	; 1
    2068:	92 95       	swap	r25
    206a:	99 0f       	add	r25, r25
    206c:	90 7e       	andi	r25, 0xE0	; 224
    206e:	8f 7d       	andi	r24, 0xDF	; 223
    2070:	89 2b       	or	r24, r25
    2072:	81 87       	std	Z+9, r24	; 0x09
					}
					if ( p->Pmu.State == NORM_OVER  )
    2074:	d9 01       	movw	r26, r18
    2076:	8c 91       	ld	r24, X
    2078:	84 30       	cpi	r24, 0x04	; 4
    207a:	d9 f4       	brne	.+54     	; 0x20b2 <Ni_Battery_Function+0x602>
					{
						if ( p->Menu.Toggle == ON ) sprintf ( Line, "%s", "DONE" );
    207c:	f6 01       	movw	r30, r12
    207e:	81 85       	ldd	r24, Z+9	; 0x09
    2080:	85 ff       	sbrs	r24, 5
    2082:	09 c0       	rjmp	.+18     	; 0x2096 <Ni_Battery_Function+0x5e6>
    2084:	85 e0       	ldi	r24, 0x05	; 5
    2086:	a5 ea       	ldi	r26, 0xA5	; 165
    2088:	b3 e0       	ldi	r27, 0x03	; 3
    208a:	fe 01       	movw	r30, r28
    208c:	31 96       	adiw	r30, 0x01	; 1
    208e:	0d 90       	ld	r0, X+
    2090:	01 92       	st	Z+, r0
    2092:	8a 95       	dec	r24
    2094:	e1 f7       	brne	.-8      	; 0x208e <Ni_Battery_Function+0x5de>
						p->Menu.Toggle = ~p->Menu.Toggle;
    2096:	f6 01       	movw	r30, r12
    2098:	81 85       	ldd	r24, Z+9	; 0x09
    209a:	98 2f       	mov	r25, r24
    209c:	92 95       	swap	r25
    209e:	96 95       	lsr	r25
    20a0:	97 70       	andi	r25, 0x07	; 7
    20a2:	90 95       	com	r25
    20a4:	91 70       	andi	r25, 0x01	; 1
    20a6:	92 95       	swap	r25
    20a8:	99 0f       	add	r25, r25
    20aa:	90 7e       	andi	r25, 0xE0	; 224
    20ac:	8f 7d       	andi	r24, 0xDF	; 223
    20ae:	89 2b       	or	r24, r25
    20b0:	81 87       	std	Z+9, r24	; 0x09
					}
					sprintf ( Line + 4,  "%s", Get_Item ( p, str, CUR_IMA ));
    20b2:	8e 01       	movw	r16, r28
    20b4:	0e 5e       	subi	r16, 0xEE	; 238
    20b6:	1f 4f       	sbci	r17, 0xFF	; 255
    20b8:	41 e0       	ldi	r20, 0x01	; 1
    20ba:	b8 01       	movw	r22, r16
    20bc:	c6 01       	movw	r24, r12
    20be:	0e 94 84 13 	call	0x2708 <Get_Item>
    20c2:	bc 01       	movw	r22, r24
    20c4:	ce 01       	movw	r24, r28
    20c6:	05 96       	adiw	r24, 0x05	; 5
    20c8:	0e 94 f7 1c 	call	0x39ee <strcpy>
  			    	sprintf ( Line + 9, " %s", Get_Item ( p, str, VOLT ));
    20cc:	45 e0       	ldi	r20, 0x05	; 5
    20ce:	b8 01       	movw	r22, r16
    20d0:	c6 01       	movw	r24, r12
    20d2:	0e 94 84 13 	call	0x2708 <Get_Item>
    20d6:	9f 93       	push	r25
    20d8:	8f 93       	push	r24
    20da:	87 e7       	ldi	r24, 0x77	; 119
    20dc:	93 e0       	ldi	r25, 0x03	; 3
    20de:	9f 93       	push	r25
    20e0:	8f 93       	push	r24
    20e2:	2a e0       	ldi	r18, 0x0A	; 10
    20e4:	e2 2e       	mov	r14, r18
    20e6:	f1 2c       	mov	r15, r1
    20e8:	ec 0e       	add	r14, r28
    20ea:	fd 1e       	adc	r15, r29
    20ec:	ff 92       	push	r15
    20ee:	ef 92       	push	r14
    20f0:	0e 94 fe 1c 	call	0x39fc <sprintf>
					LCD_Update ( COL1, ROW1, Line );
    20f4:	ae 01       	movw	r20, r28
    20f6:	4f 5f       	subi	r20, 0xFF	; 255
    20f8:	5f 4f       	sbci	r21, 0xFF	; 255
    20fa:	60 e0       	ldi	r22, 0x00	; 0
    20fc:	86 2f       	mov	r24, r22
    20fe:	0e 94 4a 03 	call	0x694 <LCD_Update>

					if 		( p->Batt.Mode == AUTO_CHARGE	 ) sprintf ( Line, "%s", "Aut" );
    2102:	f6 01       	movw	r30, r12
    2104:	83 85       	ldd	r24, Z+11	; 0x0b
    2106:	2d b7       	in	r18, 0x3d	; 61
    2108:	3e b7       	in	r19, 0x3e	; 62
    210a:	2a 5f       	subi	r18, 0xFA	; 250
    210c:	3f 4f       	sbci	r19, 0xFF	; 255
    210e:	0f b6       	in	r0, 0x3f	; 63
    2110:	f8 94       	cli
    2112:	3e bf       	out	0x3e, r19	; 62
    2114:	0f be       	out	0x3f, r0	; 63
    2116:	2d bf       	out	0x3d, r18	; 61
    2118:	8a 30       	cpi	r24, 0x0A	; 10
    211a:	29 f4       	brne	.+10     	; 0x2126 <Ni_Battery_Function+0x676>
    211c:	81 e4       	ldi	r24, 0x41	; 65
    211e:	95 e7       	ldi	r25, 0x75	; 117
    2120:	a4 e7       	ldi	r26, 0x74	; 116
    2122:	b0 e0       	ldi	r27, 0x00	; 0
    2124:	24 c0       	rjmp	.+72     	; 0x216e <Ni_Battery_Function+0x6be>
					else if	( p->Batt.Mode == MANUAL_CHARGE  ) sprintf ( Line, "%s", "CHG" );
    2126:	8b 30       	cpi	r24, 0x0B	; 11
    2128:	29 f4       	brne	.+10     	; 0x2134 <Ni_Battery_Function+0x684>
    212a:	83 e4       	ldi	r24, 0x43	; 67
    212c:	98 e4       	ldi	r25, 0x48	; 72
    212e:	a7 e4       	ldi	r26, 0x47	; 71
    2130:	b0 e0       	ldi	r27, 0x00	; 0
    2132:	1d c0       	rjmp	.+58     	; 0x216e <Ni_Battery_Function+0x6be>
					else if ( p->Batt.Mode == FORMING_CHARGE ) sprintf ( Line, "%s", "FRM" );
    2134:	8d 30       	cpi	r24, 0x0D	; 13
    2136:	29 f4       	brne	.+10     	; 0x2142 <Ni_Battery_Function+0x692>
    2138:	86 e4       	ldi	r24, 0x46	; 70
    213a:	92 e5       	ldi	r25, 0x52	; 82
    213c:	ad e4       	ldi	r26, 0x4D	; 77
    213e:	b0 e0       	ldi	r27, 0x00	; 0
    2140:	16 c0       	rjmp	.+44     	; 0x216e <Ni_Battery_Function+0x6be>
					else if ( p->Batt.Mode == DISCHARGE		 ) sprintf ( Line, "%s", "DSC" );
    2142:	86 30       	cpi	r24, 0x06	; 6
    2144:	29 f4       	brne	.+10     	; 0x2150 <Ni_Battery_Function+0x6a0>
    2146:	84 e4       	ldi	r24, 0x44	; 68
    2148:	93 e5       	ldi	r25, 0x53	; 83
    214a:	a3 e4       	ldi	r26, 0x43	; 67
    214c:	b0 e0       	ldi	r27, 0x00	; 0
    214e:	0f c0       	rjmp	.+30     	; 0x216e <Ni_Battery_Function+0x6be>
					else if ( p->Batt.Mode == CYCLE			 ) 
    2150:	88 30       	cpi	r24, 0x08	; 8
    2152:	89 f4       	brne	.+34     	; 0x2176 <Ni_Battery_Function+0x6c6>
						 if ( p->Batt.Cycle.Form & D_C 		 ) sprintf ( Line, "%s", "D>C" );
    2154:	f6 01       	movw	r30, r12
    2156:	84 89       	ldd	r24, Z+20	; 0x14
    2158:	87 ff       	sbrs	r24, 7
    215a:	05 c0       	rjmp	.+10     	; 0x2166 <Ni_Battery_Function+0x6b6>
    215c:	84 e4       	ldi	r24, 0x44	; 68
    215e:	9e e3       	ldi	r25, 0x3E	; 62
    2160:	a3 e4       	ldi	r26, 0x43	; 67
    2162:	b0 e0       	ldi	r27, 0x00	; 0
    2164:	04 c0       	rjmp	.+8      	; 0x216e <Ni_Battery_Function+0x6be>
						 else 					  			   sprintf ( Line, "%s", "C>D" );
    2166:	83 e4       	ldi	r24, 0x43	; 67
    2168:	9e e3       	ldi	r25, 0x3E	; 62
    216a:	a4 e4       	ldi	r26, 0x44	; 68
    216c:	b0 e0       	ldi	r27, 0x00	; 0
    216e:	89 83       	std	Y+1, r24	; 0x01
    2170:	9a 83       	std	Y+2, r25	; 0x02
    2172:	ab 83       	std	Y+3, r26	; 0x03
    2174:	bc 83       	std	Y+4, r27	; 0x04
					else ;
					sprintf ( Line + 3, "%s",  Get_Item ( p, str, CAPACITY ));
    2176:	4b e0       	ldi	r20, 0x0B	; 11
    2178:	b8 01       	movw	r22, r16
    217a:	c6 01       	movw	r24, r12
    217c:	0e 94 84 13 	call	0x2708 <Get_Item>
    2180:	bc 01       	movw	r22, r24
    2182:	ce 01       	movw	r24, r28
    2184:	04 96       	adiw	r24, 0x04	; 4
    2186:	0e 94 f7 1c 	call	0x39ee <strcpy>
					sprintf ( Line + 9, "%7s", Get_Item ( p, str, TIME ));
    218a:	4d e0       	ldi	r20, 0x0D	; 13
    218c:	b8 01       	movw	r22, r16
    218e:	c6 01       	movw	r24, r12
    2190:	0e 94 84 13 	call	0x2708 <Get_Item>
    2194:	9f 93       	push	r25
    2196:	8f 93       	push	r24
    2198:	8a ea       	ldi	r24, 0xAA	; 170
    219a:	93 e0       	ldi	r25, 0x03	; 3
    219c:	9f 93       	push	r25
    219e:	8f 93       	push	r24
    21a0:	ff 92       	push	r15
    21a2:	ef 92       	push	r14
    21a4:	0e 94 fe 1c 	call	0x39fc <sprintf>
					LCD_Update ( COL1, ROW2, Line );
    21a8:	ae 01       	movw	r20, r28
    21aa:	4f 5f       	subi	r20, 0xFF	; 255
    21ac:	5f 4f       	sbci	r21, 0xFF	; 255
    21ae:	61 e0       	ldi	r22, 0x01	; 1
    21b0:	80 e0       	ldi	r24, 0x00	; 0
    21b2:	0e 94 4a 03 	call	0x694 <LCD_Update>
					p->Menu.Update = NEED;
    21b6:	f6 01       	movw	r30, r12
    21b8:	81 85       	ldd	r24, Z+9	; 0x09
    21ba:	8f 7b       	andi	r24, 0xBF	; 191
    21bc:	81 87       	std	Z+9, r24	; 0x09
					break;
    21be:	2d b7       	in	r18, 0x3d	; 61
    21c0:	3e b7       	in	r19, 0x3e	; 62
    21c2:	2a 5f       	subi	r18, 0xFA	; 250
    21c4:	3f 4f       	sbci	r19, 0xFF	; 255
    21c6:	0f b6       	in	r0, 0x3f	; 63
    21c8:	f8 94       	cli
    21ca:	3e bf       	out	0x3e, r19	; 62
    21cc:	0f be       	out	0x3f, r0	; 63
    21ce:	2d bf       	out	0x3d, r18	; 61
    21d0:	80 c0       	rjmp	.+256    	; 0x22d2 <Ni_Battery_Function+0x822>

				case 2:
					sprintf ( Line, "%d ", 1+ p->Menu.Sub );
    21d2:	f6 01       	movw	r30, r12
    21d4:	87 81       	ldd	r24, Z+7	; 0x07
    21d6:	99 27       	eor	r25, r25
    21d8:	01 96       	adiw	r24, 0x01	; 1
    21da:	9f 93       	push	r25
    21dc:	8f 93       	push	r24
    21de:	9e ea       	ldi	r25, 0xAE	; 174
    21e0:	89 2e       	mov	r8, r25
    21e2:	93 e0       	ldi	r25, 0x03	; 3
    21e4:	99 2e       	mov	r9, r25
    21e6:	9f 92       	push	r9
    21e8:	8f 92       	push	r8
    21ea:	5e 01       	movw	r10, r28
    21ec:	08 94       	sec
    21ee:	a1 1c       	adc	r10, r1
    21f0:	b1 1c       	adc	r11, r1
    21f2:	bf 92       	push	r11
    21f4:	af 92       	push	r10
    21f6:	0e 94 fe 1c 	call	0x39fc <sprintf>
					if ( p->Batt.Cycle.Form & D_C ) sprintf ( Line + 2, "DCHG" );
    21fa:	f6 01       	movw	r30, r12
    21fc:	84 89       	ldd	r24, Z+20	; 0x14
    21fe:	2d b7       	in	r18, 0x3d	; 61
    2200:	3e b7       	in	r19, 0x3e	; 62
    2202:	2a 5f       	subi	r18, 0xFA	; 250
    2204:	3f 4f       	sbci	r19, 0xFF	; 255
    2206:	0f b6       	in	r0, 0x3f	; 63
    2208:	f8 94       	cli
    220a:	3e bf       	out	0x3e, r19	; 62
    220c:	0f be       	out	0x3f, r0	; 63
    220e:	2d bf       	out	0x3d, r18	; 61
    2210:	de 01       	movw	r26, r28
    2212:	13 96       	adiw	r26, 0x03	; 3
    2214:	87 ff       	sbrs	r24, 7
    2216:	04 c0       	rjmp	.+8      	; 0x2220 <Ni_Battery_Function+0x770>
    2218:	85 e0       	ldi	r24, 0x05	; 5
    221a:	e2 e8       	ldi	r30, 0x82	; 130
    221c:	f3 e0       	ldi	r31, 0x03	; 3
    221e:	03 c0       	rjmp	.+6      	; 0x2226 <Ni_Battery_Function+0x776>
					else  							sprintf ( Line + 2, "CHG " );
    2220:	85 e0       	ldi	r24, 0x05	; 5
    2222:	e2 eb       	ldi	r30, 0xB2	; 178
    2224:	f3 e0       	ldi	r31, 0x03	; 3
    2226:	01 90       	ld	r0, Z+
    2228:	0d 92       	st	X+, r0
    222a:	8a 95       	dec	r24
    222c:	e1 f7       	brne	.-8      	; 0x2226 <Ni_Battery_Function+0x776>
					sprintf ( Line + 6, "%s", Get_Item ( p, str, TIME_CAPACITY ));
    222e:	82 e1       	ldi	r24, 0x12	; 18
    2230:	e8 2e       	mov	r14, r24
    2232:	f1 2c       	mov	r15, r1
    2234:	ec 0e       	add	r14, r28
    2236:	fd 1e       	adc	r15, r29
    2238:	42 e1       	ldi	r20, 0x12	; 18
    223a:	b7 01       	movw	r22, r14
    223c:	c6 01       	movw	r24, r12
    223e:	0e 94 84 13 	call	0x2708 <Get_Item>
    2242:	8e 01       	movw	r16, r28
    2244:	09 5f       	subi	r16, 0xF9	; 249
    2246:	1f 4f       	sbci	r17, 0xFF	; 255
    2248:	bc 01       	movw	r22, r24
    224a:	c8 01       	movw	r24, r16
    224c:	0e 94 f7 1c 	call	0x39ee <strcpy>
					LCD_Update ( COL1, ROW1, Line );
    2250:	ae 01       	movw	r20, r28
    2252:	4f 5f       	subi	r20, 0xFF	; 255
    2254:	5f 4f       	sbci	r21, 0xFF	; 255
    2256:	60 e0       	ldi	r22, 0x00	; 0
    2258:	86 2f       	mov	r24, r22
    225a:	0e 94 4a 03 	call	0x694 <LCD_Update>
					sprintf ( Line, "%d ", 1+ p->Menu.Sub );
    225e:	f6 01       	movw	r30, r12
    2260:	87 81       	ldd	r24, Z+7	; 0x07
    2262:	99 27       	eor	r25, r25
    2264:	01 96       	adiw	r24, 0x01	; 1
    2266:	9f 93       	push	r25
    2268:	8f 93       	push	r24
    226a:	9f 92       	push	r9
    226c:	8f 92       	push	r8
    226e:	bf 92       	push	r11
    2270:	af 92       	push	r10
    2272:	0e 94 fe 1c 	call	0x39fc <sprintf>
					if ( p->Batt.Cycle.Form & D_C ) sprintf ( Line + 2, "CHG " );
    2276:	f6 01       	movw	r30, r12
    2278:	84 89       	ldd	r24, Z+20	; 0x14
    227a:	2d b7       	in	r18, 0x3d	; 61
    227c:	3e b7       	in	r19, 0x3e	; 62
    227e:	2a 5f       	subi	r18, 0xFA	; 250
    2280:	3f 4f       	sbci	r19, 0xFF	; 255
    2282:	0f b6       	in	r0, 0x3f	; 63
    2284:	f8 94       	cli
    2286:	3e bf       	out	0x3e, r19	; 62
    2288:	0f be       	out	0x3f, r0	; 63
    228a:	2d bf       	out	0x3d, r18	; 61
    228c:	de 01       	movw	r26, r28
    228e:	13 96       	adiw	r26, 0x03	; 3
    2290:	87 ff       	sbrs	r24, 7
    2292:	04 c0       	rjmp	.+8      	; 0x229c <Ni_Battery_Function+0x7ec>
    2294:	85 e0       	ldi	r24, 0x05	; 5
    2296:	e2 eb       	ldi	r30, 0xB2	; 178
    2298:	f3 e0       	ldi	r31, 0x03	; 3
    229a:	03 c0       	rjmp	.+6      	; 0x22a2 <Ni_Battery_Function+0x7f2>
					else  							sprintf ( Line + 2, "DCHG" );
    229c:	85 e0       	ldi	r24, 0x05	; 5
    229e:	e2 e8       	ldi	r30, 0x82	; 130
    22a0:	f3 e0       	ldi	r31, 0x03	; 3
    22a2:	01 90       	ld	r0, Z+
    22a4:	0d 92       	st	X+, r0
    22a6:	8a 95       	dec	r24
    22a8:	e1 f7       	brne	.-8      	; 0x22a2 <Ni_Battery_Function+0x7f2>
					sprintf ( Line + 6, "%s", Get_Item ( p, str, TIME_CAPACITY ));;
    22aa:	42 e1       	ldi	r20, 0x12	; 18
    22ac:	b7 01       	movw	r22, r14
    22ae:	c6 01       	movw	r24, r12
    22b0:	0e 94 84 13 	call	0x2708 <Get_Item>
    22b4:	bc 01       	movw	r22, r24
    22b6:	c8 01       	movw	r24, r16
    22b8:	0e 94 f7 1c 	call	0x39ee <strcpy>
					LCD_Update ( COL1, ROW2, Line );
    22bc:	ae 01       	movw	r20, r28
    22be:	4f 5f       	subi	r20, 0xFF	; 255
    22c0:	5f 4f       	sbci	r21, 0xFF	; 255
    22c2:	61 e0       	ldi	r22, 0x01	; 1
    22c4:	80 e0       	ldi	r24, 0x00	; 0
    22c6:	0e 94 4a 03 	call	0x694 <LCD_Update>
					p->Menu.Num_Top = ON;
    22ca:	f6 01       	movw	r30, r12
    22cc:	81 85       	ldd	r24, Z+9	; 0x09
    22ce:	82 60       	ori	r24, 0x02	; 2
    22d0:	81 87       	std	Z+9, r24	; 0x09
    22d2:	a2 96       	adiw	r28, 0x22	; 34
    22d4:	0f b6       	in	r0, 0x3f	; 63
    22d6:	f8 94       	cli
    22d8:	de bf       	out	0x3e, r29	; 62
    22da:	0f be       	out	0x3f, r0	; 63
    22dc:	cd bf       	out	0x3d, r28	; 61
    22de:	df 91       	pop	r29
    22e0:	cf 91       	pop	r28
    22e2:	1f 91       	pop	r17
    22e4:	0f 91       	pop	r16
    22e6:	ff 90       	pop	r15
    22e8:	ef 90       	pop	r14
    22ea:	df 90       	pop	r13
    22ec:	cf 90       	pop	r12
    22ee:	bf 90       	pop	r11
    22f0:	af 90       	pop	r10
    22f2:	9f 90       	pop	r9
    22f4:	8f 90       	pop	r8
    22f6:	08 95       	ret

000022f8 <Pb_Battery_Function>:
//-----------------------------------------------------------------------------
// Pb Battery Operate Rountine
//-----------------------------------------------------------------------------
void Pb_Battery_Function ( PSTMSG p )
{
    22f8:	cf 92       	push	r12
    22fa:	df 92       	push	r13
    22fc:	ef 92       	push	r14
    22fe:	ff 92       	push	r15
    2300:	0f 93       	push	r16
    2302:	1f 93       	push	r17
    2304:	cf 93       	push	r28
    2306:	df 93       	push	r29
    2308:	cd b7       	in	r28, 0x3d	; 61
    230a:	de b7       	in	r29, 0x3e	; 62
    230c:	a2 97       	sbiw	r28, 0x22	; 34
    230e:	0f b6       	in	r0, 0x3f	; 63
    2310:	f8 94       	cli
    2312:	de bf       	out	0x3e, r29	; 62
    2314:	0f be       	out	0x3f, r0	; 63
    2316:	cd bf       	out	0x3d, r28	; 61
    2318:	7c 01       	movw	r14, r24
	char Line[COLUMN_MAX +1] = "";
    231a:	80 91 b7 03 	lds	r24, 0x03B7
    231e:	89 83       	std	Y+1, r24	; 0x01
    2320:	90 e1       	ldi	r25, 0x10	; 16
    2322:	fe 01       	movw	r30, r28
    2324:	32 96       	adiw	r30, 0x02	; 2
    2326:	29 2f       	mov	r18, r25
    2328:	11 92       	st	Z+, r1
    232a:	2a 95       	dec	r18
    232c:	e9 f7       	brne	.-6      	; 0x2328 <Pb_Battery_Function+0x30>
	char str [COLUMN_MAX +1] = "";
    232e:	8a 8b       	std	Y+18, r24	; 0x12
    2330:	fe 01       	movw	r30, r28
    2332:	73 96       	adiw	r30, 0x13	; 19
    2334:	11 92       	st	Z+, r1
    2336:	9a 95       	dec	r25
    2338:	e9 f7       	brne	.-6      	; 0x2334 <Pb_Battery_Function+0x3c>

	switch ( p->Menu.Layer )
    233a:	f7 01       	movw	r30, r14
    233c:	85 81       	ldd	r24, Z+5	; 0x05
    233e:	99 27       	eor	r25, r25
    2340:	82 30       	cpi	r24, 0x02	; 2
    2342:	91 05       	cpc	r25, r1
    2344:	21 f0       	breq	.+8      	; 0x234e <Pb_Battery_Function+0x56>
    2346:	03 97       	sbiw	r24, 0x03	; 3
    2348:	09 f4       	brne	.+2      	; 0x234c <Pb_Battery_Function+0x54>
    234a:	ee c0       	rjmp	.+476    	; 0x2528 <Pb_Battery_Function+0x230>
    234c:	ce c1       	rjmp	.+924    	; 0x26ea <Pb_Battery_Function+0x3f2>
	{
		case FUNCTION_LAYER:
			if ( p->Menu.Key == OPEN )
    234e:	f7 01       	movw	r30, r14
    2350:	81 85       	ldd	r24, Z+9	; 0x09
    2352:	87 ff       	sbrs	r24, 7
    2354:	0e c0       	rjmp	.+28     	; 0x2372 <Pb_Battery_Function+0x7a>
			{
				Menu_Scroll ( p, 2 );
    2356:	62 e0       	ldi	r22, 0x02	; 2
    2358:	c7 01       	movw	r24, r14
    235a:	0e 94 e8 1a 	call	0x35d0 <Menu_Scroll>
				if (( p->Menu.Update == UNNEED ) && ( p->Menu.Sub == 0 ))
    235e:	f7 01       	movw	r30, r14
    2360:	91 85       	ldd	r25, Z+9	; 0x09
    2362:	96 ff       	sbrs	r25, 6
    2364:	06 c0       	rjmp	.+12     	; 0x2372 <Pb_Battery_Function+0x7a>
    2366:	87 81       	ldd	r24, Z+7	; 0x07
    2368:	88 23       	and	r24, r24
    236a:	19 f4       	brne	.+6      	; 0x2372 <Pb_Battery_Function+0x7a>
				    { p->Menu.Update = NEED;  break; }
    236c:	9f 7b       	andi	r25, 0xBF	; 191
    236e:	91 87       	std	Z+9, r25	; 0x09
    2370:	bc c1       	rjmp	.+888    	; 0x26ea <Pb_Battery_Function+0x3f2>
			} 
			else ;
			//p->Key.n = FIFO_Clear ((unsigned char *) p->Key.FIFO, p->Key.n );
			if ( p->Menu.Sub ) p->Menu.Update = NEED; 	
    2372:	f7 01       	movw	r30, r14
    2374:	87 81       	ldd	r24, Z+7	; 0x07
    2376:	91 85       	ldd	r25, Z+9	; 0x09
    2378:	88 23       	and	r24, r24
    237a:	11 f0       	breq	.+4      	; 0x2380 <Pb_Battery_Function+0x88>
    237c:	9f 7b       	andi	r25, 0xBF	; 191
    237e:	02 c0       	rjmp	.+4      	; 0x2384 <Pb_Battery_Function+0x8c>
			else p->Menu.Update = UNNEED;
    2380:	90 64       	ori	r25, 0x40	; 64
    2382:	f7 01       	movw	r30, r14
    2384:	91 87       	std	Z+9, r25	; 0x09
			p->Menu.Key	= OPEN;
    2386:	f7 01       	movw	r30, r14
    2388:	81 85       	ldd	r24, Z+9	; 0x09
    238a:	80 68       	ori	r24, 0x80	; 128
    238c:	81 87       	std	Z+9, r24	; 0x09

			if ( p->Batt.Type == PB ) sprintf ( Line, "%s", "Pb  " );
    238e:	62 85       	ldd	r22, Z+10	; 0x0a
    2390:	65 30       	cpi	r22, 0x05	; 5
    2392:	09 f0       	breq	.+2      	; 0x2396 <Pb_Battery_Function+0x9e>
    2394:	aa c1       	rjmp	.+852    	; 0x26ea <Pb_Battery_Function+0x3f2>
    2396:	6e 01       	movw	r12, r28
    2398:	08 94       	sec
    239a:	c1 1c       	adc	r12, r1
    239c:	d1 1c       	adc	r13, r1
    239e:	e8 ec       	ldi	r30, 0xC8	; 200
    23a0:	f3 e0       	ldi	r31, 0x03	; 3
    23a2:	d6 01       	movw	r26, r12
    23a4:	26 2f       	mov	r18, r22
    23a6:	01 90       	ld	r0, Z+
    23a8:	0d 92       	st	X+, r0
    23aa:	2a 95       	dec	r18
    23ac:	e1 f7       	brne	.-8      	; 0x23a6 <Pb_Battery_Function+0xae>
			else return;
			Battery_Limit_Set ((PSTLIMIT) &p->Batt.Limit, p->Batt.Type );
    23ae:	c7 01       	movw	r24, r14
    23b0:	8c 96       	adiw	r24, 0x2c	; 44
    23b2:	0e 94 4e 1a 	call	0x349c <Battery_Limit_Set>
			switch ( p->Menu.Num )
    23b6:	f7 01       	movw	r30, r14
    23b8:	86 81       	ldd	r24, Z+6	; 0x06
    23ba:	99 27       	eor	r25, r25
    23bc:	81 30       	cpi	r24, 0x01	; 1
    23be:	91 05       	cpc	r25, r1
    23c0:	21 f0       	breq	.+8      	; 0x23ca <Pb_Battery_Function+0xd2>
    23c2:	02 97       	sbiw	r24, 0x02	; 2
    23c4:	09 f4       	brne	.+2      	; 0x23c8 <Pb_Battery_Function+0xd0>
    23c6:	74 c0       	rjmp	.+232    	; 0x24b0 <Pb_Battery_Function+0x1b8>
    23c8:	90 c1       	rjmp	.+800    	; 0x26ea <Pb_Battery_Function+0x3f2>
			{
				case 1:
					sprintf ( Line +4, "%12s", "CHARGE" );
    23ca:	8d ec       	ldi	r24, 0xCD	; 205
    23cc:	93 e0       	ldi	r25, 0x03	; 3
    23ce:	9f 93       	push	r25
    23d0:	8f 93       	push	r24
    23d2:	84 ed       	ldi	r24, 0xD4	; 212
    23d4:	93 e0       	ldi	r25, 0x03	; 3
    23d6:	9f 93       	push	r25
    23d8:	8f 93       	push	r24
    23da:	ce 01       	movw	r24, r28
    23dc:	05 96       	adiw	r24, 0x05	; 5
    23de:	9f 93       	push	r25
    23e0:	8f 93       	push	r24
    23e2:	0e 94 fe 1c 	call	0x39fc <sprintf>
					LCD_Update ( COL1, ROW1, Line );
    23e6:	a6 01       	movw	r20, r12
    23e8:	60 e0       	ldi	r22, 0x00	; 0
    23ea:	86 2f       	mov	r24, r22
    23ec:	0e 94 4a 03 	call	0x694 <LCD_Update>
					sprintf ( Line, "%d.%dAH ", p->Batt.mAh /1000, ( p->Batt.mAh %1000 )/100 );
    23f0:	f7 01       	movw	r30, r14
    23f2:	86 85       	ldd	r24, Z+14	; 0x0e
    23f4:	97 85       	ldd	r25, Z+15	; 0x0f
    23f6:	68 ee       	ldi	r22, 0xE8	; 232
    23f8:	73 e0       	ldi	r23, 0x03	; 3
    23fa:	0e 94 43 20 	call	0x4086 <__udivmodhi4>
    23fe:	64 e6       	ldi	r22, 0x64	; 100
    2400:	70 e0       	ldi	r23, 0x00	; 0
    2402:	0e 94 43 20 	call	0x4086 <__udivmodhi4>
    2406:	7f 93       	push	r23
    2408:	6f 93       	push	r22
    240a:	86 85       	ldd	r24, Z+14	; 0x0e
    240c:	97 85       	ldd	r25, Z+15	; 0x0f
    240e:	68 ee       	ldi	r22, 0xE8	; 232
    2410:	73 e0       	ldi	r23, 0x03	; 3
    2412:	0e 94 43 20 	call	0x4086 <__udivmodhi4>
    2416:	7f 93       	push	r23
    2418:	6f 93       	push	r22
    241a:	89 ed       	ldi	r24, 0xD9	; 217
    241c:	93 e0       	ldi	r25, 0x03	; 3
    241e:	9f 93       	push	r25
    2420:	8f 93       	push	r24
    2422:	df 92       	push	r13
    2424:	cf 92       	push	r12
    2426:	0e 94 fe 1c 	call	0x39fc <sprintf>
					sprintf ( str, "%2d.%d(%dS)", (	p->Batt.Limit.Volt_Level * p->Batt.Serial )/100,
    242a:	f7 01       	movw	r30, r14
    242c:	83 89       	ldd	r24, Z+19	; 0x13
    242e:	99 27       	eor	r25, r25
    2430:	9f 93       	push	r25
    2432:	8f 93       	push	r24
    2434:	94 a5       	ldd	r25, Z+44	; 0x2c
    2436:	83 89       	ldd	r24, Z+19	; 0x13
    2438:	98 9f       	mul	r25, r24
    243a:	c0 01       	movw	r24, r0
    243c:	11 24       	eor	r1, r1
    243e:	64 e6       	ldi	r22, 0x64	; 100
    2440:	70 e0       	ldi	r23, 0x00	; 0
    2442:	0e 94 57 20 	call	0x40ae <__divmodhi4>
    2446:	6a e0       	ldi	r22, 0x0A	; 10
    2448:	70 e0       	ldi	r23, 0x00	; 0
    244a:	0e 94 57 20 	call	0x40ae <__divmodhi4>
    244e:	7f 93       	push	r23
    2450:	6f 93       	push	r22
    2452:	94 a5       	ldd	r25, Z+44	; 0x2c
    2454:	83 89       	ldd	r24, Z+19	; 0x13
    2456:	98 9f       	mul	r25, r24
    2458:	c0 01       	movw	r24, r0
    245a:	11 24       	eor	r1, r1
    245c:	64 e6       	ldi	r22, 0x64	; 100
    245e:	70 e0       	ldi	r23, 0x00	; 0
    2460:	0e 94 57 20 	call	0x40ae <__divmodhi4>
    2464:	7f 93       	push	r23
    2466:	6f 93       	push	r22
    2468:	82 ee       	ldi	r24, 0xE2	; 226
    246a:	93 e0       	ldi	r25, 0x03	; 3
    246c:	9f 93       	push	r25
    246e:	8f 93       	push	r24
    2470:	8e 01       	movw	r16, r28
    2472:	0e 5e       	subi	r16, 0xEE	; 238
    2474:	1f 4f       	sbci	r17, 0xFF	; 255
    2476:	1f 93       	push	r17
    2478:	0f 93       	push	r16
    247a:	0e 94 fe 1c 	call	0x39fc <sprintf>
												 (( p->Batt.Limit.Volt_Level * p->Batt.Serial )%100 )/10,
													p->Batt.Serial );
					sprintf ( Line +6, "%10s", str );
    247e:	1f 93       	push	r17
    2480:	0f 93       	push	r16
    2482:	8e ee       	ldi	r24, 0xEE	; 238
    2484:	93 e0       	ldi	r25, 0x03	; 3
    2486:	9f 93       	push	r25
    2488:	8f 93       	push	r24
    248a:	ce 01       	movw	r24, r28
    248c:	07 96       	adiw	r24, 0x07	; 7
    248e:	9f 93       	push	r25
    2490:	8f 93       	push	r24
    2492:	0e 94 fe 1c 	call	0x39fc <sprintf>
					LCD_Update ( COL1, ROW2, Line );
    2496:	a6 01       	movw	r20, r12
    2498:	61 e0       	ldi	r22, 0x01	; 1
    249a:	80 e0       	ldi	r24, 0x00	; 0
    249c:	0e 94 4a 03 	call	0x694 <LCD_Update>
					p->Batt.Mode = FORMING_CHARGE;
    24a0:	8d e0       	ldi	r24, 0x0D	; 13
    24a2:	f7 01       	movw	r30, r14
    24a4:	83 87       	std	Z+11, r24	; 0x0b
					break;
    24a6:	2d b7       	in	r18, 0x3d	; 61
    24a8:	3e b7       	in	r19, 0x3e	; 62
    24aa:	22 5e       	subi	r18, 0xE2	; 226
    24ac:	3f 4f       	sbci	r19, 0xFF	; 255
    24ae:	18 c1       	rjmp	.+560    	; 0x26e0 <Pb_Battery_Function+0x3e8>

				case 2:
					sprintf ( Line +4, "%12s", "DISCHARGE" );
    24b0:	83 ef       	ldi	r24, 0xF3	; 243
    24b2:	93 e0       	ldi	r25, 0x03	; 3
    24b4:	9f 93       	push	r25
    24b6:	8f 93       	push	r24
    24b8:	84 ed       	ldi	r24, 0xD4	; 212
    24ba:	93 e0       	ldi	r25, 0x03	; 3
    24bc:	9f 93       	push	r25
    24be:	8f 93       	push	r24
    24c0:	8e 01       	movw	r16, r28
    24c2:	0b 5f       	subi	r16, 0xFB	; 251
    24c4:	1f 4f       	sbci	r17, 0xFF	; 255
    24c6:	1f 93       	push	r17
    24c8:	0f 93       	push	r16
    24ca:	0e 94 fe 1c 	call	0x39fc <sprintf>
					LCD_Update ( COL1, ROW1, Line );
    24ce:	a6 01       	movw	r20, r12
    24d0:	60 e0       	ldi	r22, 0x00	; 0
    24d2:	86 2f       	mov	r24, r22
    24d4:	0e 94 4a 03 	call	0x694 <LCD_Update>
					sprintf ( Line, "%s", Get_Item ( p, str, I_MA ));
    24d8:	42 e0       	ldi	r20, 0x02	; 2
    24da:	be 01       	movw	r22, r28
    24dc:	6e 5e       	subi	r22, 0xEE	; 238
    24de:	7f 4f       	sbci	r23, 0xFF	; 255
    24e0:	c7 01       	movw	r24, r14
    24e2:	0e 94 84 13 	call	0x2708 <Get_Item>
    24e6:	bc 01       	movw	r22, r24
    24e8:	c6 01       	movw	r24, r12
    24ea:	0e 94 f7 1c 	call	0x39ee <strcpy>
					sprintf ( Line +4, "%12d", p->Batt.Volt );
    24ee:	f7 01       	movw	r30, r14
    24f0:	80 89       	ldd	r24, Z+16	; 0x10
    24f2:	91 89       	ldd	r25, Z+17	; 0x11
    24f4:	9f 93       	push	r25
    24f6:	8f 93       	push	r24
    24f8:	8d ef       	ldi	r24, 0xFD	; 253
    24fa:	93 e0       	ldi	r25, 0x03	; 3
    24fc:	9f 93       	push	r25
    24fe:	8f 93       	push	r24
    2500:	1f 93       	push	r17
    2502:	0f 93       	push	r16
    2504:	0e 94 fe 1c 	call	0x39fc <sprintf>
					LCD_Update ( COL1, ROW2, Line );
    2508:	a6 01       	movw	r20, r12
    250a:	61 e0       	ldi	r22, 0x01	; 1
    250c:	80 e0       	ldi	r24, 0x00	; 0
    250e:	0e 94 4a 03 	call	0x694 <LCD_Update>
					p->Batt.Mode = DISCHARGE;
    2512:	86 e0       	ldi	r24, 0x06	; 6
    2514:	f7 01       	movw	r30, r14
    2516:	83 87       	std	Z+11, r24	; 0x0b
					p->Menu.Num_Top = ON;
    2518:	81 85       	ldd	r24, Z+9	; 0x09
    251a:	82 60       	ori	r24, 0x02	; 2
    251c:	81 87       	std	Z+9, r24	; 0x09
					break;
    251e:	2d b7       	in	r18, 0x3d	; 61
    2520:	3e b7       	in	r19, 0x3e	; 62
    2522:	24 5f       	subi	r18, 0xF4	; 244
    2524:	3f 4f       	sbci	r19, 0xFF	; 255
    2526:	dc c0       	rjmp	.+440    	; 0x26e0 <Pb_Battery_Function+0x3e8>
				default:
					break;
			}
			break;

		case OPERATE_LAYER:
			if ( p->Menu.Key == OPEN )
    2528:	f7 01       	movw	r30, r14
    252a:	81 85       	ldd	r24, Z+9	; 0x09
    252c:	87 ff       	sbrs	r24, 7
    252e:	23 c0       	rjmp	.+70     	; 0x2576 <Pb_Battery_Function+0x27e>
			{
				if ( p->Key.FIFO[0] & (ON<<KEY_STOP))
    2530:	93 e8       	ldi	r25, 0x83	; 131
    2532:	c9 2e       	mov	r12, r25
    2534:	d1 2c       	mov	r13, r1
    2536:	ce 0c       	add	r12, r14
    2538:	df 1c       	adc	r13, r15
    253a:	d6 01       	movw	r26, r12
    253c:	8c 91       	ld	r24, X
    253e:	87 ff       	sbrs	r24, 7
    2540:	10 c0       	rjmp	.+32     	; 0x2562 <Pb_Battery_Function+0x26a>
				{
					if 		( p->Pmu.State == NORM_RUN ) p->Pmu.State = FORCE_STOP;
    2542:	e9 5a       	subi	r30, 0xA9	; 169
    2544:	ff 4f       	sbci	r31, 0xFF	; 255
    2546:	80 81       	ld	r24, Z
    2548:	82 30       	cpi	r24, 0x02	; 2
    254a:	19 f4       	brne	.+6      	; 0x2552 <Pb_Battery_Function+0x25a>
    254c:	88 e0       	ldi	r24, 0x08	; 8
    254e:	80 83       	st	Z, r24
    2550:	08 c0       	rjmp	.+16     	; 0x2562 <Pb_Battery_Function+0x26a>
					else if ( p->Pmu.State == NORM_STOP ) 
    2552:	86 30       	cpi	r24, 0x06	; 6
    2554:	31 f4       	brne	.+12     	; 0x2562 <Pb_Battery_Function+0x26a>
						Menu_Jump ( p, OPERATE_LAYER - ONE_LAYER, p->Batt.Mode );
    2556:	f7 01       	movw	r30, r14
    2558:	43 85       	ldd	r20, Z+11	; 0x0b
    255a:	62 e0       	ldi	r22, 0x02	; 2
    255c:	c7 01       	movw	r24, r14
    255e:	0e 94 df 03 	call	0x7be <Menu_Jump>
				}
				p->Key.n = FIFO_Pop ((unsigned char *) p->Key.FIFO, p->Key.n );
    2562:	87 01       	movw	r16, r14
    2564:	03 57       	subi	r16, 0x73	; 115
    2566:	1f 4f       	sbci	r17, 0xFF	; 255
    2568:	d8 01       	movw	r26, r16
    256a:	6c 91       	ld	r22, X
    256c:	c6 01       	movw	r24, r12
    256e:	0e 94 42 06 	call	0xc84 <FIFO_Pop>
    2572:	f8 01       	movw	r30, r16
    2574:	80 83       	st	Z, r24
			} 
			else ;
			p->Menu.Update = NEED;
    2576:	f7 01       	movw	r30, r14
    2578:	91 85       	ldd	r25, Z+9	; 0x09
    257a:	9f 7b       	andi	r25, 0xBF	; 191
			p->Menu.Key	= OPEN;
    257c:	90 68       	ori	r25, 0x80	; 128
    257e:	91 87       	std	Z+9, r25	; 0x09
			switch ( p->Menu.Num )
    2580:	86 81       	ldd	r24, Z+6	; 0x06
    2582:	81 30       	cpi	r24, 0x01	; 1
    2584:	09 f0       	breq	.+2      	; 0x2588 <Pb_Battery_Function+0x290>
    2586:	b1 c0       	rjmp	.+354    	; 0x26ea <Pb_Battery_Function+0x3f2>
			{
				case 1:
					if ( p->Menu.Toggle == OFF ) sprintf ( Line, "Pb%02d", p->Batt.Serial );
    2588:	95 fd       	sbrc	r25, 5
    258a:	17 c0       	rjmp	.+46     	; 0x25ba <Pb_Battery_Function+0x2c2>
    258c:	83 89       	ldd	r24, Z+19	; 0x13
    258e:	99 27       	eor	r25, r25
    2590:	9f 93       	push	r25
    2592:	8f 93       	push	r24
    2594:	82 e0       	ldi	r24, 0x02	; 2
    2596:	94 e0       	ldi	r25, 0x04	; 4
    2598:	9f 93       	push	r25
    259a:	8f 93       	push	r24
    259c:	ce 01       	movw	r24, r28
    259e:	01 96       	adiw	r24, 0x01	; 1
    25a0:	9f 93       	push	r25
    25a2:	8f 93       	push	r24
    25a4:	0e 94 fe 1c 	call	0x39fc <sprintf>
    25a8:	2d b7       	in	r18, 0x3d	; 61
    25aa:	3e b7       	in	r19, 0x3e	; 62
    25ac:	2a 5f       	subi	r18, 0xFA	; 250
    25ae:	3f 4f       	sbci	r19, 0xFF	; 255
    25b0:	0f b6       	in	r0, 0x3f	; 63
    25b2:	f8 94       	cli
    25b4:	3e bf       	out	0x3e, r19	; 62
    25b6:	0f be       	out	0x3f, r0	; 63
    25b8:	2d bf       	out	0x3d, r18	; 61
					if ( p->Pmu.State == NORM_OVER ) 
    25ba:	87 e5       	ldi	r24, 0x57	; 87
    25bc:	90 e0       	ldi	r25, 0x00	; 0
    25be:	e8 0e       	add	r14, r24
    25c0:	f9 1e       	adc	r15, r25
    25c2:	d7 01       	movw	r26, r14
    25c4:	8c 91       	ld	r24, X
    25c6:	e9 ea       	ldi	r30, 0xA9	; 169
    25c8:	ff ef       	ldi	r31, 0xFF	; 255
    25ca:	ee 0e       	add	r14, r30
    25cc:	ff 1e       	adc	r15, r31
    25ce:	84 30       	cpi	r24, 0x04	; 4
    25d0:	d9 f4       	brne	.+54     	; 0x2608 <Pb_Battery_Function+0x310>
					{
						if ( p->Menu.Toggle == ON ) sprintf ( Line, "%s", "DONE" );
    25d2:	f7 01       	movw	r30, r14
    25d4:	81 85       	ldd	r24, Z+9	; 0x09
    25d6:	85 ff       	sbrs	r24, 5
    25d8:	09 c0       	rjmp	.+18     	; 0x25ec <Pb_Battery_Function+0x2f4>
    25da:	85 e0       	ldi	r24, 0x05	; 5
    25dc:	a9 e0       	ldi	r26, 0x09	; 9
    25de:	b4 e0       	ldi	r27, 0x04	; 4
    25e0:	fe 01       	movw	r30, r28
    25e2:	31 96       	adiw	r30, 0x01	; 1
    25e4:	0d 90       	ld	r0, X+
    25e6:	01 92       	st	Z+, r0
    25e8:	8a 95       	dec	r24
    25ea:	e1 f7       	brne	.-8      	; 0x25e4 <Pb_Battery_Function+0x2ec>
						p->Menu.Toggle = ~p->Menu.Toggle;
    25ec:	f7 01       	movw	r30, r14
    25ee:	81 85       	ldd	r24, Z+9	; 0x09
    25f0:	98 2f       	mov	r25, r24
    25f2:	92 95       	swap	r25
    25f4:	96 95       	lsr	r25
    25f6:	97 70       	andi	r25, 0x07	; 7
    25f8:	90 95       	com	r25
    25fa:	91 70       	andi	r25, 0x01	; 1
    25fc:	92 95       	swap	r25
    25fe:	99 0f       	add	r25, r25
    2600:	90 7e       	andi	r25, 0xE0	; 224
    2602:	8f 7d       	andi	r24, 0xDF	; 223
    2604:	89 2b       	or	r24, r25
    2606:	81 87       	std	Z+9, r24	; 0x09
					}
					sprintf ( Line + 4,  "%s", Get_Item ( p, str, CUR_IMA ));
    2608:	8e 01       	movw	r16, r28
    260a:	0e 5e       	subi	r16, 0xEE	; 238
    260c:	1f 4f       	sbci	r17, 0xFF	; 255
    260e:	41 e0       	ldi	r20, 0x01	; 1
    2610:	b8 01       	movw	r22, r16
    2612:	c7 01       	movw	r24, r14
    2614:	0e 94 84 13 	call	0x2708 <Get_Item>
    2618:	bc 01       	movw	r22, r24
    261a:	ce 01       	movw	r24, r28
    261c:	05 96       	adiw	r24, 0x05	; 5
    261e:	0e 94 f7 1c 	call	0x39ee <strcpy>
  			    	sprintf ( Line + 9, " %s", Get_Item ( p, str, VOLT ));
    2622:	45 e0       	ldi	r20, 0x05	; 5
    2624:	b8 01       	movw	r22, r16
    2626:	c7 01       	movw	r24, r14
    2628:	0e 94 84 13 	call	0x2708 <Get_Item>
    262c:	9f 93       	push	r25
    262e:	8f 93       	push	r24
    2630:	8e e0       	ldi	r24, 0x0E	; 14
    2632:	94 e0       	ldi	r25, 0x04	; 4
    2634:	9f 93       	push	r25
    2636:	8f 93       	push	r24
    2638:	8a e0       	ldi	r24, 0x0A	; 10
    263a:	c8 2e       	mov	r12, r24
    263c:	d1 2c       	mov	r13, r1
    263e:	cc 0e       	add	r12, r28
    2640:	dd 1e       	adc	r13, r29
    2642:	df 92       	push	r13
    2644:	cf 92       	push	r12
    2646:	0e 94 fe 1c 	call	0x39fc <sprintf>
					LCD_Update ( COL1, ROW1, Line );
    264a:	ae 01       	movw	r20, r28
    264c:	4f 5f       	subi	r20, 0xFF	; 255
    264e:	5f 4f       	sbci	r21, 0xFF	; 255
    2650:	60 e0       	ldi	r22, 0x00	; 0
    2652:	86 2f       	mov	r24, r22
    2654:	0e 94 4a 03 	call	0x694 <LCD_Update>

					if		( p->Batt.Mode == MANUAL_CHARGE  ) sprintf ( Line, "%s", "CHG" );
    2658:	f7 01       	movw	r30, r14
    265a:	83 85       	ldd	r24, Z+11	; 0x0b
    265c:	2d b7       	in	r18, 0x3d	; 61
    265e:	3e b7       	in	r19, 0x3e	; 62
    2660:	2a 5f       	subi	r18, 0xFA	; 250
    2662:	3f 4f       	sbci	r19, 0xFF	; 255
    2664:	0f b6       	in	r0, 0x3f	; 63
    2666:	f8 94       	cli
    2668:	3e bf       	out	0x3e, r19	; 62
    266a:	0f be       	out	0x3f, r0	; 63
    266c:	2d bf       	out	0x3d, r18	; 61
    266e:	8b 30       	cpi	r24, 0x0B	; 11
    2670:	29 f4       	brne	.+10     	; 0x267c <Pb_Battery_Function+0x384>
    2672:	83 e4       	ldi	r24, 0x43	; 67
    2674:	98 e4       	ldi	r25, 0x48	; 72
    2676:	a7 e4       	ldi	r26, 0x47	; 71
    2678:	b0 e0       	ldi	r27, 0x00	; 0
    267a:	06 c0       	rjmp	.+12     	; 0x2688 <Pb_Battery_Function+0x390>
					else if ( p->Batt.Mode == DISCHARGE		 ) sprintf ( Line, "%s", "DSC" );
    267c:	86 30       	cpi	r24, 0x06	; 6
    267e:	41 f4       	brne	.+16     	; 0x2690 <Pb_Battery_Function+0x398>
    2680:	84 e4       	ldi	r24, 0x44	; 68
    2682:	93 e5       	ldi	r25, 0x53	; 83
    2684:	a3 e4       	ldi	r26, 0x43	; 67
    2686:	b0 e0       	ldi	r27, 0x00	; 0
    2688:	89 83       	std	Y+1, r24	; 0x01
    268a:	9a 83       	std	Y+2, r25	; 0x02
    268c:	ab 83       	std	Y+3, r26	; 0x03
    268e:	bc 83       	std	Y+4, r27	; 0x04
					else ;
					sprintf ( Line + 3, "%s",  Get_Item ( p, str, CAPACITY ));
    2690:	4b e0       	ldi	r20, 0x0B	; 11
    2692:	b8 01       	movw	r22, r16
    2694:	c7 01       	movw	r24, r14
    2696:	0e 94 84 13 	call	0x2708 <Get_Item>
    269a:	bc 01       	movw	r22, r24
    269c:	ce 01       	movw	r24, r28
    269e:	04 96       	adiw	r24, 0x04	; 4
    26a0:	0e 94 f7 1c 	call	0x39ee <strcpy>
					sprintf ( Line + 9, "%7s", Get_Item ( p, str, TIME ));
    26a4:	4d e0       	ldi	r20, 0x0D	; 13
    26a6:	b8 01       	movw	r22, r16
    26a8:	c7 01       	movw	r24, r14
    26aa:	0e 94 84 13 	call	0x2708 <Get_Item>
    26ae:	9f 93       	push	r25
    26b0:	8f 93       	push	r24
    26b2:	82 e1       	ldi	r24, 0x12	; 18
    26b4:	94 e0       	ldi	r25, 0x04	; 4
    26b6:	9f 93       	push	r25
    26b8:	8f 93       	push	r24
    26ba:	df 92       	push	r13
    26bc:	cf 92       	push	r12
    26be:	0e 94 fe 1c 	call	0x39fc <sprintf>
					LCD_Update ( COL1, ROW2, Line );
    26c2:	ae 01       	movw	r20, r28
    26c4:	4f 5f       	subi	r20, 0xFF	; 255
    26c6:	5f 4f       	sbci	r21, 0xFF	; 255
    26c8:	61 e0       	ldi	r22, 0x01	; 1
    26ca:	80 e0       	ldi	r24, 0x00	; 0
    26cc:	0e 94 4a 03 	call	0x694 <LCD_Update>
					p->Menu.Num_Top = ON;
    26d0:	f7 01       	movw	r30, r14
    26d2:	81 85       	ldd	r24, Z+9	; 0x09
    26d4:	82 60       	ori	r24, 0x02	; 2
    26d6:	81 87       	std	Z+9, r24	; 0x09
					break;
    26d8:	2d b7       	in	r18, 0x3d	; 61
    26da:	3e b7       	in	r19, 0x3e	; 62
    26dc:	2a 5f       	subi	r18, 0xFA	; 250
    26de:	3f 4f       	sbci	r19, 0xFF	; 255
    26e0:	0f b6       	in	r0, 0x3f	; 63
    26e2:	f8 94       	cli
    26e4:	3e bf       	out	0x3e, r19	; 62
    26e6:	0f be       	out	0x3f, r0	; 63
    26e8:	2d bf       	out	0x3d, r18	; 61
    26ea:	a2 96       	adiw	r28, 0x22	; 34
    26ec:	0f b6       	in	r0, 0x3f	; 63
    26ee:	f8 94       	cli
    26f0:	de bf       	out	0x3e, r29	; 62
    26f2:	0f be       	out	0x3f, r0	; 63
    26f4:	cd bf       	out	0x3d, r28	; 61
    26f6:	df 91       	pop	r29
    26f8:	cf 91       	pop	r28
    26fa:	1f 91       	pop	r17
    26fc:	0f 91       	pop	r16
    26fe:	ff 90       	pop	r15
    2700:	ef 90       	pop	r14
    2702:	df 90       	pop	r13
    2704:	cf 90       	pop	r12
    2706:	08 95       	ret

00002708 <Get_Item>:
//-----------------------------------------------------------------------------
// Get String Rountine
//-----------------------------------------------------------------------------
char * Get_Item ( PSTMSG p, char * str, unsigned char Type )
{
    2708:	bf 92       	push	r11
    270a:	cf 92       	push	r12
    270c:	df 92       	push	r13
    270e:	ef 92       	push	r14
    2710:	ff 92       	push	r15
    2712:	0f 93       	push	r16
    2714:	1f 93       	push	r17
    2716:	cf 93       	push	r28
    2718:	df 93       	push	r29
    271a:	ec 01       	movw	r28, r24
    271c:	8b 01       	movw	r16, r22
    271e:	84 2f       	mov	r24, r20
	unsigned char i = 0;
    2720:	bb 24       	eor	r11, r11

	switch ( Type )
    2722:	99 27       	eor	r25, r25
    2724:	aa 27       	eor	r26, r26
    2726:	bb 27       	eor	r27, r27
    2728:	fc 01       	movw	r30, r24
    272a:	31 97       	sbiw	r30, 0x01	; 1
    272c:	e4 31       	cpi	r30, 0x14	; 20
    272e:	f1 05       	cpc	r31, r1
    2730:	08 f0       	brcs	.+2      	; 0x2734 <Get_Item+0x2c>
    2732:	4e c3       	rjmp	.+1692   	; 0x2dd0 <Get_Item+0x6c8>
    2734:	e6 5d       	subi	r30, 0xD6	; 214
    2736:	ff 4f       	sbci	r31, 0xFF	; 255
    2738:	ee 0f       	add	r30, r30
    273a:	ff 1f       	adc	r31, r31
    273c:	05 90       	lpm	r0, Z+
    273e:	f4 91       	lpm	r31, Z
    2740:	e0 2d       	mov	r30, r0
    2742:	09 94       	ijmp
	{
		case I_MA:
			if 		( p->Batt.IA < 100  ) sprintf ( str, ".%02dA", p->Batt.IA );
    2744:	8c 85       	ldd	r24, Y+12	; 0x0c
    2746:	9d 85       	ldd	r25, Y+13	; 0x0d
    2748:	84 36       	cpi	r24, 0x64	; 100
    274a:	91 05       	cpc	r25, r1
    274c:	28 f4       	brcc	.+10     	; 0x2758 <Get_Item+0x50>
    274e:	9f 93       	push	r25
    2750:	8f 93       	push	r24
    2752:	86 e1       	ldi	r24, 0x16	; 22
    2754:	94 e0       	ldi	r25, 0x04	; 4
    2756:	0c c1       	rjmp	.+536    	; 0x2970 <Get_Item+0x268>
			else if ( p->Batt.IA < 1000 ) sprintf ( str, "%d.%dA", p->Batt.IA /100, 
    2758:	53 e0       	ldi	r21, 0x03	; 3
    275a:	88 3e       	cpi	r24, 0xE8	; 232
    275c:	95 07       	cpc	r25, r21
    275e:	08 f0       	brcs	.+2      	; 0x2762 <Get_Item+0x5a>
    2760:	44 c0       	rjmp	.+136    	; 0x27ea <Get_Item+0xe2>
    2762:	64 e6       	ldi	r22, 0x64	; 100
    2764:	70 e0       	ldi	r23, 0x00	; 0
    2766:	0e 94 43 20 	call	0x4086 <__udivmodhi4>
    276a:	6a e0       	ldi	r22, 0x0A	; 10
    276c:	70 e0       	ldi	r23, 0x00	; 0
    276e:	0e 94 43 20 	call	0x4086 <__udivmodhi4>
    2772:	7f 93       	push	r23
    2774:	6f 93       	push	r22
    2776:	8c 85       	ldd	r24, Y+12	; 0x0c
    2778:	9d 85       	ldd	r25, Y+13	; 0x0d
    277a:	64 e6       	ldi	r22, 0x64	; 100
    277c:	70 e0       	ldi	r23, 0x00	; 0
    277e:	0e 94 43 20 	call	0x4086 <__udivmodhi4>
    2782:	7f 93       	push	r23
    2784:	6f 93       	push	r22
    2786:	8d e1       	ldi	r24, 0x1D	; 29
    2788:	94 e0       	ldi	r25, 0x04	; 4
    278a:	9f 93       	push	r25
    278c:	8f 93       	push	r24
    278e:	1f 93       	push	r17
    2790:	0f 93       	push	r16
    2792:	0e 94 fe 1c 	call	0x39fc <sprintf>
    2796:	8d b7       	in	r24, 0x3d	; 61
    2798:	9e b7       	in	r25, 0x3e	; 62
    279a:	08 96       	adiw	r24, 0x08	; 8
    279c:	9d c1       	rjmp	.+826    	; 0x2ad8 <Get_Item+0x3d0>
																 ( p->Batt.IA %100) /10 );
			else 				   		  sprintf ( str, "10A " );
			break;					

		case CUR_IMA:
			if 		( p->Pmu.IA < 100  ) sprintf ( str, ".%02dA", p->Pmu.IA );
    279e:	fe 01       	movw	r30, r28
    27a0:	e7 5b       	subi	r30, 0xB7	; 183
    27a2:	ff 4f       	sbci	r31, 0xFF	; 255
    27a4:	80 81       	ld	r24, Z
    27a6:	91 81       	ldd	r25, Z+1	; 0x01
    27a8:	84 36       	cpi	r24, 0x64	; 100
    27aa:	91 05       	cpc	r25, r1
    27ac:	28 f4       	brcc	.+10     	; 0x27b8 <Get_Item+0xb0>
    27ae:	9f 93       	push	r25
    27b0:	8f 93       	push	r24
    27b2:	86 e1       	ldi	r24, 0x16	; 22
    27b4:	94 e0       	ldi	r25, 0x04	; 4
    27b6:	2b c0       	rjmp	.+86     	; 0x280e <Get_Item+0x106>
			else if ( p->Pmu.IA < 1000 ) sprintf ( str, "%d.%dA", p->Pmu.IA /100, 
    27b8:	23 e0       	ldi	r18, 0x03	; 3
    27ba:	88 3e       	cpi	r24, 0xE8	; 232
    27bc:	92 07       	cpc	r25, r18
    27be:	a8 f4       	brcc	.+42     	; 0x27ea <Get_Item+0xe2>
    27c0:	64 e6       	ldi	r22, 0x64	; 100
    27c2:	70 e0       	ldi	r23, 0x00	; 0
    27c4:	0e 94 43 20 	call	0x4086 <__udivmodhi4>
    27c8:	6a e0       	ldi	r22, 0x0A	; 10
    27ca:	70 e0       	ldi	r23, 0x00	; 0
    27cc:	0e 94 43 20 	call	0x4086 <__udivmodhi4>
    27d0:	7f 93       	push	r23
    27d2:	6f 93       	push	r22
    27d4:	80 81       	ld	r24, Z
    27d6:	91 81       	ldd	r25, Z+1	; 0x01
    27d8:	64 e6       	ldi	r22, 0x64	; 100
    27da:	70 e0       	ldi	r23, 0x00	; 0
    27dc:	0e 94 43 20 	call	0x4086 <__udivmodhi4>
    27e0:	7f 93       	push	r23
    27e2:	6f 93       	push	r22
    27e4:	8d e1       	ldi	r24, 0x1D	; 29
    27e6:	94 e0       	ldi	r25, 0x04	; 4
    27e8:	30 c0       	rjmp	.+96     	; 0x284a <Get_Item+0x142>
																 ( p->Pmu.IA %100) /10 );
			else 				   		  sprintf ( str, "10A " );
    27ea:	85 e0       	ldi	r24, 0x05	; 5
    27ec:	e4 e2       	ldi	r30, 0x24	; 36
    27ee:	f4 e0       	ldi	r31, 0x04	; 4
    27f0:	d8 01       	movw	r26, r16
    27f2:	01 90       	ld	r0, Z+
    27f4:	0d 92       	st	X+, r0
    27f6:	8a 95       	dec	r24
    27f8:	e1 f7       	brne	.-8      	; 0x27f2 <Get_Item+0xea>
			break;
    27fa:	ea c2       	rjmp	.+1492   	; 0x2dd0 <Get_Item+0x6c8>

		case I_CA:  							
			if 		( p->Batt.IA <  10 ) sprintf ( str,  "0.%dC", p->Batt.IA );
    27fc:	8c 85       	ldd	r24, Y+12	; 0x0c
    27fe:	9d 85       	ldd	r25, Y+13	; 0x0d
    2800:	8a 30       	cpi	r24, 0x0A	; 10
    2802:	91 05       	cpc	r25, r1
    2804:	70 f4       	brcc	.+28     	; 0x2822 <Get_Item+0x11a>
    2806:	9f 93       	push	r25
    2808:	8f 93       	push	r24
    280a:	89 e2       	ldi	r24, 0x29	; 41
    280c:	94 e0       	ldi	r25, 0x04	; 4
    280e:	9f 93       	push	r25
    2810:	8f 93       	push	r24
    2812:	1f 93       	push	r17
    2814:	0f 93       	push	r16
    2816:	0e 94 fe 1c 	call	0x39fc <sprintf>
    281a:	ed b7       	in	r30, 0x3d	; 61
    281c:	fe b7       	in	r31, 0x3e	; 62
    281e:	36 96       	adiw	r30, 0x06	; 6
    2820:	65 c2       	rjmp	.+1226   	; 0x2cec <Get_Item+0x5e4>
			else if ( p->Batt.IA <= 40 ) sprintf ( str, "%d.%dC", p->Batt.IA /10, p->Batt.IA %10 );
    2822:	89 32       	cpi	r24, 0x29	; 41
    2824:	91 05       	cpc	r25, r1
    2826:	08 f0       	brcs	.+2      	; 0x282a <Get_Item+0x122>
    2828:	d3 c2       	rjmp	.+1446   	; 0x2dd0 <Get_Item+0x6c8>
    282a:	6a e0       	ldi	r22, 0x0A	; 10
    282c:	70 e0       	ldi	r23, 0x00	; 0
    282e:	0e 94 43 20 	call	0x4086 <__udivmodhi4>
    2832:	9f 93       	push	r25
    2834:	8f 93       	push	r24
    2836:	8c 85       	ldd	r24, Y+12	; 0x0c
    2838:	9d 85       	ldd	r25, Y+13	; 0x0d
    283a:	6a e0       	ldi	r22, 0x0A	; 10
    283c:	70 e0       	ldi	r23, 0x00	; 0
    283e:	0e 94 43 20 	call	0x4086 <__udivmodhi4>
    2842:	7f 93       	push	r23
    2844:	6f 93       	push	r22
    2846:	8f e2       	ldi	r24, 0x2F	; 47
    2848:	94 e0       	ldi	r25, 0x04	; 4
    284a:	9f 93       	push	r25
    284c:	8f 93       	push	r24
    284e:	1f 93       	push	r17
    2850:	0f 93       	push	r16
    2852:	0e 94 fe 1c 	call	0x39fc <sprintf>
    2856:	4d b7       	in	r20, 0x3d	; 61
    2858:	5e b7       	in	r21, 0x3e	; 62
    285a:	48 5f       	subi	r20, 0xF8	; 248
    285c:	5f 4f       	sbci	r21, 0xFF	; 255
    285e:	b3 c2       	rjmp	.+1382   	; 0x2dc6 <Get_Item+0x6be>
			else ;
			break;

		case VOLT_SERIAL:  
			p->Batt.Volt = p->Batt.Limit.Volt_Level *( p->Batt.Pack +1 )*( p->Batt.Serial +1 );									
    2860:	8c a5       	ldd	r24, Y+44	; 0x2c
    2862:	28 2f       	mov	r18, r24
    2864:	33 27       	eor	r19, r19
    2866:	8a 89       	ldd	r24, Y+18	; 0x12
    2868:	99 27       	eor	r25, r25
    286a:	01 96       	adiw	r24, 0x01	; 1
    286c:	28 9f       	mul	r18, r24
    286e:	d0 01       	movw	r26, r0
    2870:	29 9f       	mul	r18, r25
    2872:	b0 0d       	add	r27, r0
    2874:	38 9f       	mul	r19, r24
    2876:	b0 0d       	add	r27, r0
    2878:	11 24       	eor	r1, r1
    287a:	8b 89       	ldd	r24, Y+19	; 0x13
    287c:	99 27       	eor	r25, r25
    287e:	01 96       	adiw	r24, 0x01	; 1
    2880:	a8 9f       	mul	r26, r24
    2882:	f0 01       	movw	r30, r0
    2884:	a9 9f       	mul	r26, r25
    2886:	f0 0d       	add	r31, r0
    2888:	b8 9f       	mul	r27, r24
    288a:	f0 0d       	add	r31, r0
    288c:	11 24       	eor	r1, r1
    288e:	cf 01       	movw	r24, r30
    2890:	f9 8b       	std	Y+17, r31	; 0x11
    2892:	e8 8b       	std	Y+16, r30	; 0x10
			sprintf ( str, " %2d.%dV", p->Batt.Volt /100, ( p->Batt.Volt %100 ) /10 );
    2894:	64 e6       	ldi	r22, 0x64	; 100
    2896:	70 e0       	ldi	r23, 0x00	; 0
    2898:	0e 94 43 20 	call	0x4086 <__udivmodhi4>
    289c:	6a e0       	ldi	r22, 0x0A	; 10
    289e:	70 e0       	ldi	r23, 0x00	; 0
    28a0:	0e 94 43 20 	call	0x4086 <__udivmodhi4>
    28a4:	7f 93       	push	r23
    28a6:	6f 93       	push	r22
    28a8:	88 89       	ldd	r24, Y+16	; 0x10
    28aa:	99 89       	ldd	r25, Y+17	; 0x11
    28ac:	64 e6       	ldi	r22, 0x64	; 100
    28ae:	70 e0       	ldi	r23, 0x00	; 0
    28b0:	0e 94 43 20 	call	0x4086 <__udivmodhi4>
    28b4:	7f 93       	push	r23
    28b6:	6f 93       	push	r22
    28b8:	86 e3       	ldi	r24, 0x36	; 54
    28ba:	94 e0       	ldi	r25, 0x04	; 4
    28bc:	9f 93       	push	r25
    28be:	8f 93       	push	r24
    28c0:	1f 93       	push	r17
    28c2:	0f 93       	push	r16
    28c4:	0e 94 fe 1c 	call	0x39fc <sprintf>
			if ( p->Batt.Pack ) sprintf ( str + strlen (str), "(%dX", p->Batt.Pack +1 );
    28c8:	4d b7       	in	r20, 0x3d	; 61
    28ca:	5e b7       	in	r21, 0x3e	; 62
    28cc:	48 5f       	subi	r20, 0xF8	; 248
    28ce:	5f 4f       	sbci	r21, 0xFF	; 255
    28d0:	0f b6       	in	r0, 0x3f	; 63
    28d2:	f8 94       	cli
    28d4:	5e bf       	out	0x3e, r21	; 62
    28d6:	0f be       	out	0x3f, r0	; 63
    28d8:	4d bf       	out	0x3d, r20	; 61
    28da:	8a 89       	ldd	r24, Y+18	; 0x12
    28dc:	88 23       	and	r24, r24
    28de:	c9 f0       	breq	.+50     	; 0x2912 <Get_Item+0x20a>
    28e0:	99 27       	eor	r25, r25
    28e2:	01 96       	adiw	r24, 0x01	; 1
    28e4:	9f 93       	push	r25
    28e6:	8f 93       	push	r24
    28e8:	8f e3       	ldi	r24, 0x3F	; 63
    28ea:	94 e0       	ldi	r25, 0x04	; 4
    28ec:	9f 93       	push	r25
    28ee:	8f 93       	push	r24
    28f0:	f8 01       	movw	r30, r16
    28f2:	01 90       	ld	r0, Z+
    28f4:	00 20       	and	r0, r0
    28f6:	e9 f7       	brne	.-6      	; 0x28f2 <Get_Item+0x1ea>
    28f8:	31 97       	sbiw	r30, 0x01	; 1
    28fa:	ff 93       	push	r31
    28fc:	ef 93       	push	r30
    28fe:	0e 94 fe 1c 	call	0x39fc <sprintf>
    2902:	8d b7       	in	r24, 0x3d	; 61
    2904:	9e b7       	in	r25, 0x3e	; 62
    2906:	06 96       	adiw	r24, 0x06	; 6
    2908:	0f b6       	in	r0, 0x3f	; 63
    290a:	f8 94       	cli
    290c:	9e bf       	out	0x3e, r25	; 62
    290e:	0f be       	out	0x3f, r0	; 63
    2910:	8d bf       	out	0x3d, r24	; 61
			sprintf ( str +strlen (str), "%dS)", p->Batt.Serial +1 );
    2912:	8b 89       	ldd	r24, Y+19	; 0x13
    2914:	99 27       	eor	r25, r25
    2916:	01 96       	adiw	r24, 0x01	; 1
    2918:	9f 93       	push	r25
    291a:	8f 93       	push	r24
    291c:	84 e4       	ldi	r24, 0x44	; 68
    291e:	94 e0       	ldi	r25, 0x04	; 4
    2920:	9f 93       	push	r25
    2922:	8f 93       	push	r24
    2924:	f8 01       	movw	r30, r16
    2926:	01 90       	ld	r0, Z+
    2928:	00 20       	and	r0, r0
    292a:	e9 f7       	brne	.-6      	; 0x2926 <Get_Item+0x21e>
    292c:	31 97       	sbiw	r30, 0x01	; 1
    292e:	ff 93       	push	r31
    2930:	ef 93       	push	r30
    2932:	e2 c0       	rjmp	.+452    	; 0x2af8 <Get_Item+0x3f0>
			break;

		case VOLT:  							
			sprintf ( str, " %2d.%02dV", p->Pmu.Volt /100, p->Pmu.Volt %100 );
    2934:	fe 01       	movw	r30, r28
    2936:	e5 5b       	subi	r30, 0xB5	; 181
    2938:	ff 4f       	sbci	r31, 0xFF	; 255
    293a:	80 81       	ld	r24, Z
    293c:	91 81       	ldd	r25, Z+1	; 0x01
    293e:	64 e6       	ldi	r22, 0x64	; 100
    2940:	70 e0       	ldi	r23, 0x00	; 0
    2942:	0e 94 43 20 	call	0x4086 <__udivmodhi4>
    2946:	9f 93       	push	r25
    2948:	8f 93       	push	r24
    294a:	80 81       	ld	r24, Z
    294c:	91 81       	ldd	r25, Z+1	; 0x01
    294e:	64 e6       	ldi	r22, 0x64	; 100
    2950:	70 e0       	ldi	r23, 0x00	; 0
    2952:	0e 94 43 20 	call	0x4086 <__udivmodhi4>
    2956:	7f 93       	push	r23
    2958:	6f 93       	push	r22
    295a:	89 e4       	ldi	r24, 0x49	; 73
    295c:	94 e0       	ldi	r25, 0x04	; 4
    295e:	bd c1       	rjmp	.+890    	; 0x2cda <Get_Item+0x5d2>
			break;

		case TEMPERATURE:  							
			sprintf ( str, " %05d", p->Pmu.BattT );
    2960:	c2 5b       	subi	r28, 0xB2	; 178
    2962:	df 4f       	sbci	r29, 0xFF	; 255
    2964:	88 81       	ld	r24, Y
    2966:	99 27       	eor	r25, r25
    2968:	9f 93       	push	r25
    296a:	8f 93       	push	r24
    296c:	84 e5       	ldi	r24, 0x54	; 84
    296e:	94 e0       	ldi	r25, 0x04	; 4
    2970:	9f 93       	push	r25
    2972:	8f 93       	push	r24
    2974:	1f 93       	push	r17
    2976:	0f 93       	push	r16
    2978:	0e 94 fe 1c 	call	0x39fc <sprintf>
			break;
    297c:	4d b7       	in	r20, 0x3d	; 61
    297e:	5e b7       	in	r21, 0x3e	; 62
    2980:	4a 5f       	subi	r20, 0xFA	; 250
    2982:	5f 4f       	sbci	r21, 0xFF	; 255
    2984:	20 c2       	rjmp	.+1088   	; 0x2dc6 <Get_Item+0x6be>

		case CAPACITY:  							
			sprintf ( str, " %05d", p->Pmu.mAh );
    2986:	c0 5b       	subi	r28, 0xB0	; 176
    2988:	df 4f       	sbci	r29, 0xFF	; 255
    298a:	88 81       	ld	r24, Y
    298c:	99 81       	ldd	r25, Y+1	; 0x01
    298e:	9f 93       	push	r25
    2990:	8f 93       	push	r24
    2992:	84 e5       	ldi	r24, 0x54	; 84
    2994:	94 e0       	ldi	r25, 0x04	; 4
    2996:	97 c0       	rjmp	.+302    	; 0x2ac6 <Get_Item+0x3be>
			break;

		case TIME:  							
			sprintf ( str, " %03d:%02d", p->Pmu.Time /60, p->Pmu.Time %60 );
    2998:	fe 01       	movw	r30, r28
    299a:	ee 5a       	subi	r30, 0xAE	; 174
    299c:	ff 4f       	sbci	r31, 0xFF	; 255
    299e:	80 81       	ld	r24, Z
    29a0:	91 81       	ldd	r25, Z+1	; 0x01
    29a2:	6c e3       	ldi	r22, 0x3C	; 60
    29a4:	70 e0       	ldi	r23, 0x00	; 0
    29a6:	0e 94 43 20 	call	0x4086 <__udivmodhi4>
    29aa:	9f 93       	push	r25
    29ac:	8f 93       	push	r24
    29ae:	80 81       	ld	r24, Z
    29b0:	91 81       	ldd	r25, Z+1	; 0x01
    29b2:	6c e3       	ldi	r22, 0x3C	; 60
    29b4:	70 e0       	ldi	r23, 0x00	; 0
    29b6:	0e 94 43 20 	call	0x4086 <__udivmodhi4>
    29ba:	7f 93       	push	r23
    29bc:	6f 93       	push	r22
    29be:	8a e5       	ldi	r24, 0x5A	; 90
    29c0:	94 e0       	ldi	r25, 0x04	; 4
    29c2:	9f 93       	push	r25
    29c4:	8f 93       	push	r24
    29c6:	1f 93       	push	r17
    29c8:	0f 93       	push	r16
    29ca:	0e 94 fe 1c 	call	0x39fc <sprintf>
			break;
    29ce:	ad b7       	in	r26, 0x3d	; 61
    29d0:	be b7       	in	r27, 0x3e	; 62
    29d2:	18 96       	adiw	r26, 0x08	; 8
    29d4:	96 c0       	rjmp	.+300    	; 0x2b02 <Get_Item+0x3fa>

		case CYCLE_CHARGE:
			sprintf ( str, "C:%d.%2dV->D:%d.%2dV", ( 420 - p->Batt.Cycle.Volt.Charge ) /10, 
    29d6:	8e 89       	ldd	r24, Y+22	; 0x16
    29d8:	99 27       	eor	r25, r25
    29da:	84 5d       	subi	r24, 0xD4	; 212
    29dc:	9e 4f       	sbci	r25, 0xFE	; 254
    29de:	6a e0       	ldi	r22, 0x0A	; 10
    29e0:	70 e0       	ldi	r23, 0x00	; 0
    29e2:	0e 94 57 20 	call	0x40ae <__divmodhi4>
    29e6:	9f 93       	push	r25
    29e8:	8f 93       	push	r24
    29ea:	8e 89       	ldd	r24, Y+22	; 0x16
    29ec:	99 27       	eor	r25, r25
    29ee:	84 5d       	subi	r24, 0xD4	; 212
    29f0:	9e 4f       	sbci	r25, 0xFE	; 254
    29f2:	6a e0       	ldi	r22, 0x0A	; 10
    29f4:	70 e0       	ldi	r23, 0x00	; 0
    29f6:	0e 94 57 20 	call	0x40ae <__divmodhi4>
    29fa:	7f 93       	push	r23
    29fc:	6f 93       	push	r22
    29fe:	8d 89       	ldd	r24, Y+21	; 0x15
    2a00:	24 ea       	ldi	r18, 0xA4	; 164
    2a02:	31 e0       	ldi	r19, 0x01	; 1
    2a04:	f9 01       	movw	r30, r18
    2a06:	e8 1b       	sub	r30, r24
    2a08:	f1 09       	sbc	r31, r1
    2a0a:	cf 01       	movw	r24, r30
    2a0c:	6a e0       	ldi	r22, 0x0A	; 10
    2a0e:	70 e0       	ldi	r23, 0x00	; 0
    2a10:	0e 94 57 20 	call	0x40ae <__divmodhi4>
    2a14:	9f 93       	push	r25
    2a16:	8f 93       	push	r24
    2a18:	8d 89       	ldd	r24, Y+21	; 0x15
    2a1a:	28 1b       	sub	r18, r24
    2a1c:	31 09       	sbc	r19, r1
    2a1e:	c9 01       	movw	r24, r18
    2a20:	6a e0       	ldi	r22, 0x0A	; 10
    2a22:	70 e0       	ldi	r23, 0x00	; 0
    2a24:	0e 94 57 20 	call	0x40ae <__divmodhi4>
    2a28:	7f 93       	push	r23
    2a2a:	6f 93       	push	r22
    2a2c:	85 e6       	ldi	r24, 0x65	; 101
    2a2e:	94 e0       	ldi	r25, 0x04	; 4
    2a30:	c0 c1       	rjmp	.+896    	; 0x2db2 <Get_Item+0x6aa>
												   ( 420 - p->Batt.Cycle.Volt.Charge ) %10,
												   ( p->Batt.Cycle.Volt.Discharge +300 ) /10, 
												   ( p->Batt.Cycle.Volt.Discharge +300 ) %10 );
			break;

		case CYCLE_DISCHARGE:
			sprintf ( str, "D:%d.%2dV->C:%d.%2dV", ( p->Batt.Cycle.Volt.Discharge +300 ) /10,
    2a32:	8d 89       	ldd	r24, Y+21	; 0x15
    2a34:	24 ea       	ldi	r18, 0xA4	; 164
    2a36:	31 e0       	ldi	r19, 0x01	; 1
    2a38:	d9 01       	movw	r26, r18
    2a3a:	a8 1b       	sub	r26, r24
    2a3c:	b1 09       	sbc	r27, r1
    2a3e:	cd 01       	movw	r24, r26
    2a40:	6a e0       	ldi	r22, 0x0A	; 10
    2a42:	70 e0       	ldi	r23, 0x00	; 0
    2a44:	0e 94 57 20 	call	0x40ae <__divmodhi4>
    2a48:	9f 93       	push	r25
    2a4a:	8f 93       	push	r24
    2a4c:	8d 89       	ldd	r24, Y+21	; 0x15
    2a4e:	28 1b       	sub	r18, r24
    2a50:	31 09       	sbc	r19, r1
    2a52:	c9 01       	movw	r24, r18
    2a54:	6a e0       	ldi	r22, 0x0A	; 10
    2a56:	70 e0       	ldi	r23, 0x00	; 0
    2a58:	0e 94 57 20 	call	0x40ae <__divmodhi4>
    2a5c:	7f 93       	push	r23
    2a5e:	6f 93       	push	r22
    2a60:	8e 89       	ldd	r24, Y+22	; 0x16
    2a62:	99 27       	eor	r25, r25
    2a64:	84 5d       	subi	r24, 0xD4	; 212
    2a66:	9e 4f       	sbci	r25, 0xFE	; 254
    2a68:	6a e0       	ldi	r22, 0x0A	; 10
    2a6a:	70 e0       	ldi	r23, 0x00	; 0
    2a6c:	0e 94 57 20 	call	0x40ae <__divmodhi4>
    2a70:	9f 93       	push	r25
    2a72:	8f 93       	push	r24
    2a74:	8e 89       	ldd	r24, Y+22	; 0x16
    2a76:	99 27       	eor	r25, r25
    2a78:	84 5d       	subi	r24, 0xD4	; 212
    2a7a:	9e 4f       	sbci	r25, 0xFE	; 254
    2a7c:	6a e0       	ldi	r22, 0x0A	; 10
    2a7e:	70 e0       	ldi	r23, 0x00	; 0
    2a80:	0e 94 57 20 	call	0x40ae <__divmodhi4>
    2a84:	7f 93       	push	r23
    2a86:	6f 93       	push	r22
    2a88:	8a e7       	ldi	r24, 0x7A	; 122
    2a8a:	94 e0       	ldi	r25, 0x04	; 4
    2a8c:	9f 93       	push	r25
    2a8e:	8f 93       	push	r24
    2a90:	1f 93       	push	r17
    2a92:	0f 93       	push	r16
    2a94:	0e 94 fe 1c 	call	0x39fc <sprintf>
												   ( p->Batt.Cycle.Volt.Discharge +300 ) %10,
											       ( 420 - p->Batt.Cycle.Volt.Charge ) /10, 
												   ( 420 - p->Batt.Cycle.Volt.Charge ) %10 );
			break;
    2a98:	ed b7       	in	r30, 0x3d	; 61
    2a9a:	fe b7       	in	r31, 0x3e	; 62
    2a9c:	3c 96       	adiw	r30, 0x0c	; 12
    2a9e:	26 c1       	rjmp	.+588    	; 0x2cec <Get_Item+0x5e4>

		case SERIAL:
			sprintf ( str, "%02d", 	( p->Batt.Pack +1 )*( p->Batt.Serial +1 ));
    2aa0:	8a 89       	ldd	r24, Y+18	; 0x12
    2aa2:	28 2f       	mov	r18, r24
    2aa4:	33 27       	eor	r19, r19
    2aa6:	2f 5f       	subi	r18, 0xFF	; 255
    2aa8:	3f 4f       	sbci	r19, 0xFF	; 255
    2aaa:	8b 89       	ldd	r24, Y+19	; 0x13
    2aac:	99 27       	eor	r25, r25
    2aae:	01 96       	adiw	r24, 0x01	; 1
    2ab0:	28 9f       	mul	r18, r24
    2ab2:	a0 01       	movw	r20, r0
    2ab4:	29 9f       	mul	r18, r25
    2ab6:	50 0d       	add	r21, r0
    2ab8:	38 9f       	mul	r19, r24
    2aba:	50 0d       	add	r21, r0
    2abc:	11 24       	eor	r1, r1
    2abe:	5f 93       	push	r21
    2ac0:	4f 93       	push	r20
    2ac2:	8f e8       	ldi	r24, 0x8F	; 143
    2ac4:	94 e0       	ldi	r25, 0x04	; 4
    2ac6:	9f 93       	push	r25
    2ac8:	8f 93       	push	r24
    2aca:	1f 93       	push	r17
    2acc:	0f 93       	push	r16
    2ace:	0e 94 fe 1c 	call	0x39fc <sprintf>
			break;
    2ad2:	8d b7       	in	r24, 0x3d	; 61
    2ad4:	9e b7       	in	r25, 0x3e	; 62
    2ad6:	06 96       	adiw	r24, 0x06	; 6
    2ad8:	0f b6       	in	r0, 0x3f	; 63
    2ada:	f8 94       	cli
    2adc:	9e bf       	out	0x3e, r25	; 62
    2ade:	0f be       	out	0x3f, r0	; 63
    2ae0:	8d bf       	out	0x3d, r24	; 61
    2ae2:	76 c1       	rjmp	.+748    	; 0x2dd0 <Get_Item+0x6c8>

		case CAPACITY_LMT:  							
			sprintf ( str, "%d0mAh", p->Batt.mAh );
    2ae4:	8e 85       	ldd	r24, Y+14	; 0x0e
    2ae6:	9f 85       	ldd	r25, Y+15	; 0x0f
    2ae8:	9f 93       	push	r25
    2aea:	8f 93       	push	r24
    2aec:	84 e9       	ldi	r24, 0x94	; 148
    2aee:	94 e0       	ldi	r25, 0x04	; 4
    2af0:	9f 93       	push	r25
    2af2:	8f 93       	push	r24
    2af4:	7f 93       	push	r23
    2af6:	6f 93       	push	r22
    2af8:	0e 94 fe 1c 	call	0x39fc <sprintf>
			break;
    2afc:	ad b7       	in	r26, 0x3d	; 61
    2afe:	be b7       	in	r27, 0x3e	; 62
    2b00:	16 96       	adiw	r26, 0x06	; 6
    2b02:	0f b6       	in	r0, 0x3f	; 63
    2b04:	f8 94       	cli
    2b06:	be bf       	out	0x3e, r27	; 62
    2b08:	0f be       	out	0x3f, r0	; 63
    2b0a:	ad bf       	out	0x3d, r26	; 61
    2b0c:	61 c1       	rjmp	.+706    	; 0x2dd0 <Get_Item+0x6c8>

		case VOLT_METE:
			for ( ; i < (p->Pmu.Volt /( p->Batt.Limit.Volt_Level /10 )); i++ )
    2b0e:	3b e4       	ldi	r19, 0x4B	; 75
    2b10:	e3 2e       	mov	r14, r19
    2b12:	f1 2c       	mov	r15, r1
    2b14:	ec 0e       	add	r14, r28
    2b16:	fd 1e       	adc	r15, r29
    2b18:	8c a5       	ldd	r24, Y+44	; 0x2c
    2b1a:	6a e0       	ldi	r22, 0x0A	; 10
    2b1c:	0e 94 37 20 	call	0x406e <__udivmodqi4>
    2b20:	28 2f       	mov	r18, r24
    2b22:	33 27       	eor	r19, r19
    2b24:	f7 01       	movw	r30, r14
    2b26:	80 81       	ld	r24, Z
    2b28:	91 81       	ldd	r25, Z+1	; 0x01
    2b2a:	b9 01       	movw	r22, r18
    2b2c:	0e 94 43 20 	call	0x4086 <__udivmodhi4>
    2b30:	67 2b       	or	r22, r23
    2b32:	09 f4       	brne	.+2      	; 0x2b36 <Get_Item+0x42e>
    2b34:	4d c1       	rjmp	.+666    	; 0x2dd0 <Get_Item+0x6c8>
				sprintf ( str, "%c", 0xFF );
    2b36:	8f ef       	ldi	r24, 0xFF	; 255
    2b38:	90 e0       	ldi	r25, 0x00	; 0
    2b3a:	9f 93       	push	r25
    2b3c:	8f 93       	push	r24
    2b3e:	8b e9       	ldi	r24, 0x9B	; 155
    2b40:	94 e0       	ldi	r25, 0x04	; 4
    2b42:	9f 93       	push	r25
    2b44:	8f 93       	push	r24
    2b46:	1f 93       	push	r17
    2b48:	0f 93       	push	r16
    2b4a:	0e 94 fe 1c 	call	0x39fc <sprintf>
    2b4e:	4d b7       	in	r20, 0x3d	; 61
    2b50:	5e b7       	in	r21, 0x3e	; 62
    2b52:	4a 5f       	subi	r20, 0xFA	; 250
    2b54:	5f 4f       	sbci	r21, 0xFF	; 255
    2b56:	0f b6       	in	r0, 0x3f	; 63
    2b58:	f8 94       	cli
    2b5a:	5e bf       	out	0x3e, r21	; 62
    2b5c:	0f be       	out	0x3f, r0	; 63
    2b5e:	4d bf       	out	0x3d, r20	; 61
    2b60:	b3 94       	inc	r11
    2b62:	eb 2d       	mov	r30, r11
    2b64:	ff 27       	eor	r31, r31
    2b66:	8c a5       	ldd	r24, Y+44	; 0x2c
    2b68:	6a e0       	ldi	r22, 0x0A	; 10
    2b6a:	0e 94 37 20 	call	0x406e <__udivmodqi4>
    2b6e:	28 2f       	mov	r18, r24
    2b70:	33 27       	eor	r19, r19
    2b72:	d7 01       	movw	r26, r14
    2b74:	8d 91       	ld	r24, X+
    2b76:	9c 91       	ld	r25, X
    2b78:	b9 01       	movw	r22, r18
    2b7a:	0e 94 43 20 	call	0x4086 <__udivmodhi4>
    2b7e:	e6 17       	cp	r30, r22
    2b80:	f7 07       	cpc	r31, r23
    2b82:	c8 f2       	brcs	.-78     	; 0x2b36 <Get_Item+0x42e>
			break;
    2b84:	25 c1       	rjmp	.+586    	; 0x2dd0 <Get_Item+0x6c8>

		case BALANCE_METE:  
			for ( ; i < (( p->Pmu.CellH - p->Pmu.CellL ) /10 ); i++ )
    2b86:	24 e5       	ldi	r18, 0x54	; 84
    2b88:	e2 2e       	mov	r14, r18
    2b8a:	f1 2c       	mov	r15, r1
    2b8c:	ec 0e       	add	r14, r28
    2b8e:	fd 1e       	adc	r15, r29
    2b90:	f7 01       	movw	r30, r14
    2b92:	80 81       	ld	r24, Z
    2b94:	28 2f       	mov	r18, r24
    2b96:	33 27       	eor	r19, r19
    2b98:	cb 5a       	subi	r28, 0xAB	; 171
    2b9a:	df 4f       	sbci	r29, 0xFF	; 255
    2b9c:	88 81       	ld	r24, Y
    2b9e:	28 1b       	sub	r18, r24
    2ba0:	31 09       	sbc	r19, r1
    2ba2:	c9 01       	movw	r24, r18
    2ba4:	6a e0       	ldi	r22, 0x0A	; 10
    2ba6:	70 e0       	ldi	r23, 0x00	; 0
    2ba8:	0e 94 57 20 	call	0x40ae <__divmodhi4>
    2bac:	16 16       	cp	r1, r22
    2bae:	17 06       	cpc	r1, r23
    2bb0:	0c f0       	brlt	.+2      	; 0x2bb4 <Get_Item+0x4ac>
    2bb2:	0e c1       	rjmp	.+540    	; 0x2dd0 <Get_Item+0x6c8>
				sprintf ( str, "%c", 0xFF );
    2bb4:	8f ef       	ldi	r24, 0xFF	; 255
    2bb6:	90 e0       	ldi	r25, 0x00	; 0
    2bb8:	9f 93       	push	r25
    2bba:	8f 93       	push	r24
    2bbc:	8b e9       	ldi	r24, 0x9B	; 155
    2bbe:	94 e0       	ldi	r25, 0x04	; 4
    2bc0:	9f 93       	push	r25
    2bc2:	8f 93       	push	r24
    2bc4:	1f 93       	push	r17
    2bc6:	0f 93       	push	r16
    2bc8:	0e 94 fe 1c 	call	0x39fc <sprintf>
    2bcc:	4d b7       	in	r20, 0x3d	; 61
    2bce:	5e b7       	in	r21, 0x3e	; 62
    2bd0:	4a 5f       	subi	r20, 0xFA	; 250
    2bd2:	5f 4f       	sbci	r21, 0xFF	; 255
    2bd4:	0f b6       	in	r0, 0x3f	; 63
    2bd6:	f8 94       	cli
    2bd8:	5e bf       	out	0x3e, r21	; 62
    2bda:	0f be       	out	0x3f, r0	; 63
    2bdc:	4d bf       	out	0x3d, r20	; 61
    2bde:	b3 94       	inc	r11
    2be0:	eb 2d       	mov	r30, r11
    2be2:	ff 27       	eor	r31, r31
    2be4:	d7 01       	movw	r26, r14
    2be6:	8c 91       	ld	r24, X
    2be8:	99 27       	eor	r25, r25
    2bea:	28 81       	ld	r18, Y
    2bec:	82 1b       	sub	r24, r18
    2bee:	91 09       	sbc	r25, r1
    2bf0:	6a e0       	ldi	r22, 0x0A	; 10
    2bf2:	70 e0       	ldi	r23, 0x00	; 0
    2bf4:	0e 94 57 20 	call	0x40ae <__divmodhi4>
    2bf8:	e6 17       	cp	r30, r22
    2bfa:	f7 07       	cpc	r31, r23
    2bfc:	dc f2       	brlt	.-74     	; 0x2bb4 <Get_Item+0x4ac>
			break;
    2bfe:	e8 c0       	rjmp	.+464    	; 0x2dd0 <Get_Item+0x6c8>

		case PERCENT:  							
			sprintf ( str, "%d%d%%", ( p->Pmu.Volt /( p->Batt.Limit.Volt_Level /10 )),
    2c00:	fe 01       	movw	r30, r28
    2c02:	e5 5b       	subi	r30, 0xB5	; 181
    2c04:	ff 4f       	sbci	r31, 0xFF	; 255
    2c06:	8c a5       	ldd	r24, Y+44	; 0x2c
    2c08:	6a e0       	ldi	r22, 0x0A	; 10
    2c0a:	0e 94 37 20 	call	0x406e <__udivmodqi4>
    2c0e:	28 2f       	mov	r18, r24
    2c10:	33 27       	eor	r19, r19
    2c12:	80 81       	ld	r24, Z
    2c14:	91 81       	ldd	r25, Z+1	; 0x01
    2c16:	b9 01       	movw	r22, r18
    2c18:	0e 94 43 20 	call	0x4086 <__udivmodhi4>
    2c1c:	6a e0       	ldi	r22, 0x0A	; 10
    2c1e:	70 e0       	ldi	r23, 0x00	; 0
    2c20:	0e 94 43 20 	call	0x4086 <__udivmodhi4>
    2c24:	7f 93       	push	r23
    2c26:	6f 93       	push	r22
    2c28:	8c a5       	ldd	r24, Y+44	; 0x2c
    2c2a:	6a e0       	ldi	r22, 0x0A	; 10
    2c2c:	0e 94 37 20 	call	0x406e <__udivmodqi4>
    2c30:	28 2f       	mov	r18, r24
    2c32:	33 27       	eor	r19, r19
    2c34:	80 81       	ld	r24, Z
    2c36:	91 81       	ldd	r25, Z+1	; 0x01
    2c38:	b9 01       	movw	r22, r18
    2c3a:	0e 94 43 20 	call	0x4086 <__udivmodhi4>
    2c3e:	7f 93       	push	r23
    2c40:	6f 93       	push	r22
    2c42:	8e e9       	ldi	r24, 0x9E	; 158
    2c44:	94 e0       	ldi	r25, 0x04	; 4
    2c46:	49 c0       	rjmp	.+146    	; 0x2cda <Get_Item+0x5d2>
									 ( p->Pmu.Volt %( p->Batt.Limit.Volt_Level /10 )) /10);
			break;

		case BALANCE_GRADE:
			if 		(( p->Pmu.CellH - p->Pmu.CellL ) < BALANCE_VOLT    ) sprintf ( str, "A" );
    2c48:	cc 5a       	subi	r28, 0xAC	; 172
    2c4a:	df 4f       	sbci	r29, 0xFF	; 255
    2c4c:	89 91       	ld	r24, Y+
    2c4e:	48 2f       	mov	r20, r24
    2c50:	55 27       	eor	r21, r21
    2c52:	88 81       	ld	r24, Y
    2c54:	48 1b       	sub	r20, r24
    2c56:	51 09       	sbc	r21, r1
    2c58:	4a 30       	cpi	r20, 0x0A	; 10
    2c5a:	51 05       	cpc	r21, r1
    2c5c:	1c f4       	brge	.+6      	; 0x2c64 <Get_Item+0x55c>
    2c5e:	81 e4       	ldi	r24, 0x41	; 65
    2c60:	90 e0       	ldi	r25, 0x00	; 0
    2c62:	17 c0       	rjmp	.+46     	; 0x2c92 <Get_Item+0x58a>
			else if (( p->Pmu.CellH - p->Pmu.CellL ) < BALANCE_VOLT *2 ) sprintf ( str, "B" );
    2c64:	44 31       	cpi	r20, 0x14	; 20
    2c66:	51 05       	cpc	r21, r1
    2c68:	1c f4       	brge	.+6      	; 0x2c70 <Get_Item+0x568>
    2c6a:	82 e4       	ldi	r24, 0x42	; 66
    2c6c:	90 e0       	ldi	r25, 0x00	; 0
    2c6e:	0b c0       	rjmp	.+22     	; 0x2c86 <Get_Item+0x57e>
			else if (( p->Pmu.CellH - p->Pmu.CellL ) < BALANCE_VOLT *3 ) sprintf ( str, "C" );
    2c70:	4e 31       	cpi	r20, 0x1E	; 30
    2c72:	51 05       	cpc	r21, r1
    2c74:	1c f4       	brge	.+6      	; 0x2c7c <Get_Item+0x574>
    2c76:	83 e4       	ldi	r24, 0x43	; 67
    2c78:	90 e0       	ldi	r25, 0x00	; 0
    2c7a:	0b c0       	rjmp	.+22     	; 0x2c92 <Get_Item+0x58a>
			else if (( p->Pmu.CellH - p->Pmu.CellL ) < BALANCE_VOLT *4 ) sprintf ( str, "D" );
    2c7c:	48 32       	cpi	r20, 0x28	; 40
    2c7e:	51 05       	cpc	r21, r1
    2c80:	34 f4       	brge	.+12     	; 0x2c8e <Get_Item+0x586>
    2c82:	84 e4       	ldi	r24, 0x44	; 68
    2c84:	90 e0       	ldi	r25, 0x00	; 0
    2c86:	f8 01       	movw	r30, r16
    2c88:	91 83       	std	Z+1, r25	; 0x01
    2c8a:	80 83       	st	Z, r24
    2c8c:	a1 c0       	rjmp	.+322    	; 0x2dd0 <Get_Item+0x6c8>
			else    								      sprintf ( str, "E" );
    2c8e:	85 e4       	ldi	r24, 0x45	; 69
    2c90:	90 e0       	ldi	r25, 0x00	; 0
    2c92:	d8 01       	movw	r26, r16
    2c94:	8d 93       	st	X+, r24
    2c96:	9c 93       	st	X, r25
			break;
    2c98:	9b c0       	rjmp	.+310    	; 0x2dd0 <Get_Item+0x6c8>

		case TIME_CAPACITY:
			sprintf ( str, " %3d %5d", p->Batt.Cycle.Record[ p->Menu.Sub ].Time /60, 
    2c9a:	8f 81       	ldd	r24, Y+7	; 0x07
    2c9c:	e8 2f       	mov	r30, r24
    2c9e:	ff 27       	eor	r31, r31
    2ca0:	ee 0f       	add	r30, r30
    2ca2:	ff 1f       	adc	r31, r31
    2ca4:	ee 0f       	add	r30, r30
    2ca6:	ff 1f       	adc	r31, r31
    2ca8:	ec 0f       	add	r30, r28
    2caa:	fd 1f       	adc	r31, r29
    2cac:	81 8d       	ldd	r24, Z+25	; 0x19
    2cae:	92 8d       	ldd	r25, Z+26	; 0x1a
    2cb0:	9f 93       	push	r25
    2cb2:	8f 93       	push	r24
    2cb4:	8f 81       	ldd	r24, Y+7	; 0x07
    2cb6:	e8 2f       	mov	r30, r24
    2cb8:	ff 27       	eor	r31, r31
    2cba:	ee 0f       	add	r30, r30
    2cbc:	ff 1f       	adc	r31, r31
    2cbe:	ee 0f       	add	r30, r30
    2cc0:	ff 1f       	adc	r31, r31
    2cc2:	ec 0f       	add	r30, r28
    2cc4:	fd 1f       	adc	r31, r29
    2cc6:	87 89       	ldd	r24, Z+23	; 0x17
    2cc8:	90 8d       	ldd	r25, Z+24	; 0x18
    2cca:	6c e3       	ldi	r22, 0x3C	; 60
    2ccc:	70 e0       	ldi	r23, 0x00	; 0
    2cce:	0e 94 43 20 	call	0x4086 <__udivmodhi4>
    2cd2:	7f 93       	push	r23
    2cd4:	6f 93       	push	r22
    2cd6:	85 ea       	ldi	r24, 0xA5	; 165
    2cd8:	94 e0       	ldi	r25, 0x04	; 4
    2cda:	9f 93       	push	r25
    2cdc:	8f 93       	push	r24
    2cde:	1f 93       	push	r17
    2ce0:	0f 93       	push	r16
    2ce2:	0e 94 fe 1c 	call	0x39fc <sprintf>
									   p->Batt.Cycle.Record[ p->Menu.Sub ].mAh );
			break;
    2ce6:	ed b7       	in	r30, 0x3d	; 61
    2ce8:	fe b7       	in	r31, 0x3e	; 62
    2cea:	38 96       	adiw	r30, 0x08	; 8
    2cec:	0f b6       	in	r0, 0x3f	; 63
    2cee:	f8 94       	cli
    2cf0:	fe bf       	out	0x3e, r31	; 62
    2cf2:	0f be       	out	0x3f, r0	; 63
    2cf4:	ed bf       	out	0x3d, r30	; 61
    2cf6:	6c c0       	rjmp	.+216    	; 0x2dd0 <Get_Item+0x6c8>
    2cf8:	6b 01       	movw	r12, r22
    2cfa:	ca 58       	subi	r28, 0x8A	; 138
    2cfc:	df 4f       	sbci	r29, 0xFF	; 255
    2cfe:	7b 01       	movw	r14, r22

		case VOLT_CELLS:
			for ( ; i < 3; i++ ) 
				if ( p->Adc.Volt[CELL(i)] )
    2d00:	88 81       	ld	r24, Y
    2d02:	88 23       	and	r24, r24
    2d04:	f9 f0       	breq	.+62     	; 0x2d44 <Get_Item+0x63c>
					 sprintf ( str +i*4, " %d.%2d", p->Adc.Volt[CELL(i)] /( 100 /CELL_DIV ),
    2d06:	62 e3       	ldi	r22, 0x32	; 50
    2d08:	0e 94 37 20 	call	0x406e <__udivmodqi4>
    2d0c:	89 2f       	mov	r24, r25
    2d0e:	99 27       	eor	r25, r25
    2d10:	9f 93       	push	r25
    2d12:	8f 93       	push	r24
    2d14:	88 81       	ld	r24, Y
    2d16:	0e 94 37 20 	call	0x406e <__udivmodqi4>
    2d1a:	99 27       	eor	r25, r25
    2d1c:	9f 93       	push	r25
    2d1e:	8f 93       	push	r24
    2d20:	8e ea       	ldi	r24, 0xAE	; 174
    2d22:	94 e0       	ldi	r25, 0x04	; 4
    2d24:	9f 93       	push	r25
    2d26:	8f 93       	push	r24
    2d28:	ff 92       	push	r15
    2d2a:	ef 92       	push	r14
    2d2c:	0e 94 fe 1c 	call	0x39fc <sprintf>
    2d30:	4d b7       	in	r20, 0x3d	; 61
    2d32:	5e b7       	in	r21, 0x3e	; 62
    2d34:	48 5f       	subi	r20, 0xF8	; 248
    2d36:	5f 4f       	sbci	r21, 0xFF	; 255
    2d38:	0f b6       	in	r0, 0x3f	; 63
    2d3a:	f8 94       	cli
    2d3c:	5e bf       	out	0x3e, r21	; 62
    2d3e:	0f be       	out	0x3f, r0	; 63
    2d40:	4d bf       	out	0x3d, r20	; 61
    2d42:	08 c0       	rjmp	.+16     	; 0x2d54 <Get_Item+0x64c>
													p->Adc.Volt[CELL(i)] %( 100 /CELL_DIV ));
				else sprintf ( str +i*4, "----" );
    2d44:	85 e0       	ldi	r24, 0x05	; 5
    2d46:	e6 eb       	ldi	r30, 0xB6	; 182
    2d48:	f4 e0       	ldi	r31, 0x04	; 4
    2d4a:	d6 01       	movw	r26, r12
    2d4c:	01 90       	ld	r0, Z+
    2d4e:	0d 92       	st	X+, r0
    2d50:	8a 95       	dec	r24
    2d52:	e1 f7       	brne	.-8      	; 0x2d4c <Get_Item+0x644>
    2d54:	b3 94       	inc	r11
    2d56:	21 96       	adiw	r28, 0x01	; 1
    2d58:	e4 e0       	ldi	r30, 0x04	; 4
    2d5a:	f0 e0       	ldi	r31, 0x00	; 0
    2d5c:	ee 0e       	add	r14, r30
    2d5e:	ff 1e       	adc	r15, r31
    2d60:	ce 0e       	add	r12, r30
    2d62:	df 1e       	adc	r13, r31
    2d64:	f2 e0       	ldi	r31, 0x02	; 2
    2d66:	fb 15       	cp	r31, r11
    2d68:	58 f6       	brcc	.-106    	; 0x2d00 <Get_Item+0x5f8>
			break;
    2d6a:	32 c0       	rjmp	.+100    	; 0x2dd0 <Get_Item+0x6c8>

		case HIGH_LOW_CELL:
			sprintf ( str, "H:%d.%02dV  L:%d.%02dV", 
    2d6c:	fe 01       	movw	r30, r28
    2d6e:	eb 5a       	subi	r30, 0xAB	; 171
    2d70:	ff 4f       	sbci	r31, 0xFF	; 255
    2d72:	80 81       	ld	r24, Z
    2d74:	64 e6       	ldi	r22, 0x64	; 100
    2d76:	0e 94 37 20 	call	0x406e <__udivmodqi4>
    2d7a:	89 2f       	mov	r24, r25
    2d7c:	99 27       	eor	r25, r25
    2d7e:	9f 93       	push	r25
    2d80:	8f 93       	push	r24
    2d82:	80 81       	ld	r24, Z
    2d84:	0e 94 37 20 	call	0x406e <__udivmodqi4>
    2d88:	99 27       	eor	r25, r25
    2d8a:	9f 93       	push	r25
    2d8c:	8f 93       	push	r24
    2d8e:	fe 01       	movw	r30, r28
    2d90:	ec 5a       	subi	r30, 0xAC	; 172
    2d92:	ff 4f       	sbci	r31, 0xFF	; 255
    2d94:	80 81       	ld	r24, Z
    2d96:	0e 94 37 20 	call	0x406e <__udivmodqi4>
    2d9a:	89 2f       	mov	r24, r25
    2d9c:	99 27       	eor	r25, r25
    2d9e:	9f 93       	push	r25
    2da0:	8f 93       	push	r24
    2da2:	80 81       	ld	r24, Z
    2da4:	0e 94 37 20 	call	0x406e <__udivmodqi4>
    2da8:	99 27       	eor	r25, r25
    2daa:	9f 93       	push	r25
    2dac:	8f 93       	push	r24
    2dae:	8b eb       	ldi	r24, 0xBB	; 187
    2db0:	94 e0       	ldi	r25, 0x04	; 4
    2db2:	9f 93       	push	r25
    2db4:	8f 93       	push	r24
    2db6:	1f 93       	push	r17
    2db8:	0f 93       	push	r16
    2dba:	0e 94 fe 1c 	call	0x39fc <sprintf>
							p->Pmu.CellH /100, p->Pmu.CellH %100,
							p->Pmu.CellL /100, p->Pmu.CellL %100 );
			break;
    2dbe:	4d b7       	in	r20, 0x3d	; 61
    2dc0:	5e b7       	in	r21, 0x3e	; 62
    2dc2:	44 5f       	subi	r20, 0xF4	; 244
    2dc4:	5f 4f       	sbci	r21, 0xFF	; 255
    2dc6:	0f b6       	in	r0, 0x3f	; 63
    2dc8:	f8 94       	cli
    2dca:	5e bf       	out	0x3e, r21	; 62
    2dcc:	0f be       	out	0x3f, r0	; 63
    2dce:	4d bf       	out	0x3d, r20	; 61
		default:
			break;
	}
	return str;
}
    2dd0:	c8 01       	movw	r24, r16
    2dd2:	df 91       	pop	r29
    2dd4:	cf 91       	pop	r28
    2dd6:	1f 91       	pop	r17
    2dd8:	0f 91       	pop	r16
    2dda:	ff 90       	pop	r15
    2ddc:	ef 90       	pop	r14
    2dde:	df 90       	pop	r13
    2de0:	cf 90       	pop	r12
    2de2:	bf 90       	pop	r11
    2de4:	08 95       	ret

00002de6 <Charger_Initial>:
//-----------------------------------------------------------------------------
// Charger Initial Rountine
//-----------------------------------------------------------------------------
void Charger_Initial ( PSTMSG p )
{
    2de6:	08 95       	ret

00002de8 <Charger_Operate>:

}
//-----------------------------------------------------------------------------
// Charger Operate Rountine
//-----------------------------------------------------------------------------
void Charger_Operate ( PSTMSG p )
{
    2de8:	08 95       	ret

00002dea <Chargery_Parameter_Set>:
// Chargery Parameter Set Rountine
//-----------------------------------------------------------------------------
void Chargery_Parameter_Set ( char * str, char flag )
{
	switch ( msg.Menu.Num )
    2dea:	80 91 2a 07 	lds	r24, 0x072A
    2dee:	99 27       	eor	r25, r25
    2df0:	88 30       	cpi	r24, 0x08	; 8
    2df2:	91 05       	cpc	r25, r1
    2df4:	09 f4       	brne	.+2      	; 0x2df8 <Chargery_Parameter_Set+0xe>
    2df6:	74 c0       	rjmp	.+232    	; 0x2ee0 <Chargery_Parameter_Set+0xf6>
    2df8:	89 30       	cpi	r24, 0x09	; 9
    2dfa:	91 05       	cpc	r25, r1
    2dfc:	cc f4       	brge	.+50     	; 0x2e30 <Chargery_Parameter_Set+0x46>
    2dfe:	84 30       	cpi	r24, 0x04	; 4
    2e00:	91 05       	cpc	r25, r1
    2e02:	09 f4       	brne	.+2      	; 0x2e06 <Chargery_Parameter_Set+0x1c>
    2e04:	4f c0       	rjmp	.+158    	; 0x2ea4 <Chargery_Parameter_Set+0xba>
    2e06:	85 30       	cpi	r24, 0x05	; 5
    2e08:	91 05       	cpc	r25, r1
    2e0a:	54 f4       	brge	.+20     	; 0x2e20 <Chargery_Parameter_Set+0x36>
    2e0c:	82 30       	cpi	r24, 0x02	; 2
    2e0e:	91 05       	cpc	r25, r1
    2e10:	99 f1       	breq	.+102    	; 0x2e78 <Chargery_Parameter_Set+0x8e>
    2e12:	83 30       	cpi	r24, 0x03	; 3
    2e14:	91 05       	cpc	r25, r1
    2e16:	0c f0       	brlt	.+2      	; 0x2e1a <Chargery_Parameter_Set+0x30>
    2e18:	3c c0       	rjmp	.+120    	; 0x2e92 <Chargery_Parameter_Set+0xa8>
    2e1a:	01 97       	sbiw	r24, 0x01	; 1
    2e1c:	21 f1       	breq	.+72     	; 0x2e66 <Chargery_Parameter_Set+0x7c>
    2e1e:	08 95       	ret
    2e20:	86 30       	cpi	r24, 0x06	; 6
    2e22:	91 05       	cpc	r25, r1
    2e24:	09 f4       	brne	.+2      	; 0x2e28 <Chargery_Parameter_Set+0x3e>
    2e26:	4a c0       	rjmp	.+148    	; 0x2ebc <Chargery_Parameter_Set+0xd2>
    2e28:	07 97       	sbiw	r24, 0x07	; 7
    2e2a:	0c f0       	brlt	.+2      	; 0x2e2e <Chargery_Parameter_Set+0x44>
    2e2c:	50 c0       	rjmp	.+160    	; 0x2ece <Chargery_Parameter_Set+0xe4>
    2e2e:	43 c0       	rjmp	.+134    	; 0x2eb6 <Chargery_Parameter_Set+0xcc>
    2e30:	8c 30       	cpi	r24, 0x0C	; 12
    2e32:	91 05       	cpc	r25, r1
    2e34:	09 f4       	brne	.+2      	; 0x2e38 <Chargery_Parameter_Set+0x4e>
    2e36:	78 c0       	rjmp	.+240    	; 0x2f28 <Chargery_Parameter_Set+0x13e>
    2e38:	8d 30       	cpi	r24, 0x0D	; 13
    2e3a:	91 05       	cpc	r25, r1
    2e3c:	44 f4       	brge	.+16     	; 0x2e4e <Chargery_Parameter_Set+0x64>
    2e3e:	8a 30       	cpi	r24, 0x0A	; 10
    2e40:	91 05       	cpc	r25, r1
    2e42:	09 f4       	brne	.+2      	; 0x2e46 <Chargery_Parameter_Set+0x5c>
    2e44:	5f c0       	rjmp	.+190    	; 0x2f04 <Chargery_Parameter_Set+0x11a>
    2e46:	0b 97       	sbiw	r24, 0x0b	; 11
    2e48:	0c f0       	brlt	.+2      	; 0x2e4c <Chargery_Parameter_Set+0x62>
    2e4a:	65 c0       	rjmp	.+202    	; 0x2f16 <Chargery_Parameter_Set+0x12c>
    2e4c:	52 c0       	rjmp	.+164    	; 0x2ef2 <Chargery_Parameter_Set+0x108>
    2e4e:	8e 30       	cpi	r24, 0x0E	; 14
    2e50:	91 05       	cpc	r25, r1
    2e52:	09 f4       	brne	.+2      	; 0x2e56 <Chargery_Parameter_Set+0x6c>
    2e54:	7b c0       	rjmp	.+246    	; 0x2f4c <Chargery_Parameter_Set+0x162>
    2e56:	8e 30       	cpi	r24, 0x0E	; 14
    2e58:	91 05       	cpc	r25, r1
    2e5a:	0c f4       	brge	.+2      	; 0x2e5e <Chargery_Parameter_Set+0x74>
    2e5c:	6e c0       	rjmp	.+220    	; 0x2f3a <Chargery_Parameter_Set+0x150>
    2e5e:	0f 97       	sbiw	r24, 0x0f	; 15
    2e60:	09 f4       	brne	.+2      	; 0x2e64 <Chargery_Parameter_Set+0x7a>
    2e62:	7d c0       	rjmp	.+250    	; 0x2f5e <Chargery_Parameter_Set+0x174>
    2e64:	08 95       	ret
	{
		case 1:
			LCD_Update ( COL6, ROW1, "Li Type" );
    2e66:	42 ed       	ldi	r20, 0xD2	; 210
    2e68:	54 e0       	ldi	r21, 0x04	; 4
    2e6a:	60 e0       	ldi	r22, 0x00	; 0
    2e6c:	85 e0       	ldi	r24, 0x05	; 5
    2e6e:	0e 94 4a 03 	call	0x694 <LCD_Update>
			LCD_Update ( COL1, ROW2, "LiXX        X.XV" );
    2e72:	4a ed       	ldi	r20, 0xDA	; 218
    2e74:	54 e0       	ldi	r21, 0x04	; 4
    2e76:	08 c0       	rjmp	.+16     	; 0x2e88 <Chargery_Parameter_Set+0x9e>
			break;

		case 2:
			LCD_Update ( COL6, ROW1, "Lithium battery" );
    2e78:	4b ee       	ldi	r20, 0xEB	; 235
    2e7a:	54 e0       	ldi	r21, 0x04	; 4
    2e7c:	60 e0       	ldi	r22, 0x00	; 0
    2e7e:	85 e0       	ldi	r24, 0x05	; 5
    2e80:	0e 94 4a 03 	call	0x694 <LCD_Update>
			LCD_Update ( COL1, ROW2, "Check Time XXmin" );
    2e84:	4b ef       	ldi	r20, 0xFB	; 251
    2e86:	54 e0       	ldi	r21, 0x04	; 4
    2e88:	61 e0       	ldi	r22, 0x01	; 1
    2e8a:	80 e0       	ldi	r24, 0x00	; 0
    2e8c:	0e 94 4a 03 	call	0x694 <LCD_Update>
			break;
    2e90:	08 95       	ret

		case 3:
			LCD_Update ( COL6, ROW1, "Wait Time" );
    2e92:	4c e0       	ldi	r20, 0x0C	; 12
    2e94:	55 e0       	ldi	r21, 0x05	; 5
    2e96:	60 e0       	ldi	r22, 0x00	; 0
    2e98:	85 e0       	ldi	r24, 0x05	; 5
    2e9a:	0e 94 4a 03 	call	0x694 <LCD_Update>
			LCD_Update ( COL1, ROW2, "CHG/DCHG XXmin" );
    2e9e:	46 e1       	ldi	r20, 0x16	; 22
    2ea0:	55 e0       	ldi	r21, 0x05	; 5
    2ea2:	f2 cf       	rjmp	.-28     	; 0x2e88 <Chargery_Parameter_Set+0x9e>
			break;

		case 4:
			LCD_Update ( COL6, ROW1, "NiMH/NiCd/Pb" );
    2ea4:	45 e2       	ldi	r20, 0x25	; 37
    2ea6:	55 e0       	ldi	r21, 0x05	; 5
    2ea8:	60 e0       	ldi	r22, 0x00	; 0
    2eaa:	85 e0       	ldi	r24, 0x05	; 5
    2eac:	0e 94 4a 03 	call	0x694 <LCD_Update>
			LCD_Update ( COL1, ROW2, "Trickle    XXXmA" );
    2eb0:	42 e3       	ldi	r20, 0x32	; 50
    2eb2:	55 e0       	ldi	r21, 0x05	; 5
    2eb4:	e9 cf       	rjmp	.-46     	; 0x2e88 <Chargery_Parameter_Set+0x9e>
			break;

		case 5:
			LCD_Update ( COL6, ROW1, "NiMH Sensitivity" );
    2eb6:	43 e4       	ldi	r20, 0x43	; 67
    2eb8:	55 e0       	ldi	r21, 0x05	; 5
    2eba:	02 c0       	rjmp	.+4      	; 0x2ec0 <Chargery_Parameter_Set+0xd6>
			LCD_Update ( COL1, ROW2, "DeltaV XXmV/Cell" );
			break;

		case 6:
			LCD_Update ( COL6, ROW1, "NiCd Sensitivity" );
    2ebc:	44 e5       	ldi	r20, 0x54	; 84
    2ebe:	55 e0       	ldi	r21, 0x05	; 5
    2ec0:	60 e0       	ldi	r22, 0x00	; 0
    2ec2:	85 e0       	ldi	r24, 0x05	; 5
    2ec4:	0e 94 4a 03 	call	0x694 <LCD_Update>
			LCD_Update ( COL1, ROW2, "DeltaV XXmV/Cell" );
    2ec8:	45 e6       	ldi	r20, 0x65	; 101
    2eca:	55 e0       	ldi	r21, 0x05	; 5
    2ecc:	dd cf       	rjmp	.-70     	; 0x2e88 <Chargery_Parameter_Set+0x9e>
			break;

		case 7:
			LCD_Update ( COL6, ROW1, "NiMh/NiCd Check" );
    2ece:	46 e7       	ldi	r20, 0x76	; 118
    2ed0:	55 e0       	ldi	r21, 0x05	; 5
    2ed2:	60 e0       	ldi	r22, 0x00	; 0
    2ed4:	85 e0       	ldi	r24, 0x05	; 5
    2ed6:	0e 94 4a 03 	call	0x694 <LCD_Update>
			LCD_Update ( COL1, ROW2, "Delay       XXmin" );
    2eda:	46 e8       	ldi	r20, 0x86	; 134
    2edc:	55 e0       	ldi	r21, 0x05	; 5
    2ede:	d4 cf       	rjmp	.-88     	; 0x2e88 <Chargery_Parameter_Set+0x9e>
			break;

		case 8:
			LCD_Update ( COL6, ROW1, "Temp. Cut-Off" );
    2ee0:	48 e9       	ldi	r20, 0x98	; 152
    2ee2:	55 e0       	ldi	r21, 0x05	; 5
    2ee4:	60 e0       	ldi	r22, 0x00	; 0
    2ee6:	85 e0       	ldi	r24, 0x05	; 5
    2ee8:	0e 94 4a 03 	call	0x694 <LCD_Update>
			LCD_Update ( COL1, ROW2, "XXX          XX" );
    2eec:	46 ea       	ldi	r20, 0xA6	; 166
    2eee:	55 e0       	ldi	r21, 0x05	; 5
    2ef0:	cb cf       	rjmp	.-106    	; 0x2e88 <Chargery_Parameter_Set+0x9e>
			break;

		case 9:
			LCD_Update ( COL6, ROW1, "Safety timer" );
    2ef2:	48 eb       	ldi	r20, 0xB8	; 184
    2ef4:	55 e0       	ldi	r21, 0x05	; 5
    2ef6:	60 e0       	ldi	r22, 0x00	; 0
    2ef8:	85 e0       	ldi	r24, 0x05	; 5
    2efa:	0e 94 4a 03 	call	0x694 <LCD_Update>
			LCD_Update ( COL1, ROW2, "XXX       XXXmin" );
    2efe:	45 ec       	ldi	r20, 0xC5	; 197
    2f00:	55 e0       	ldi	r21, 0x05	; 5
    2f02:	c2 cf       	rjmp	.-124    	; 0x2e88 <Chargery_Parameter_Set+0x9e>
			break;

		case 10:
			LCD_Update ( COL6, ROW1, "Capacity Cut-Off" );
    2f04:	46 ed       	ldi	r20, 0xD6	; 214
    2f06:	55 e0       	ldi	r21, 0x05	; 5
    2f08:	60 e0       	ldi	r22, 0x00	; 0
    2f0a:	85 e0       	ldi	r24, 0x05	; 5
    2f0c:	0e 94 4a 03 	call	0x694 <LCD_Update>
			LCD_Update ( COL1, ROW2, "XXX    XXXXXmAh" );
    2f10:	47 ee       	ldi	r20, 0xE7	; 231
    2f12:	55 e0       	ldi	r21, 0x05	; 5
    2f14:	b9 cf       	rjmp	.-142    	; 0x2e88 <Chargery_Parameter_Set+0x9e>
			break;

		case 11:
			LCD_Update ( COL6, ROW1, "Input power low" );
    2f16:	47 ef       	ldi	r20, 0xF7	; 247
    2f18:	55 e0       	ldi	r21, 0x05	; 5
    2f1a:	60 e0       	ldi	r22, 0x00	; 0
    2f1c:	85 e0       	ldi	r24, 0x05	; 5
    2f1e:	0e 94 4a 03 	call	0x694 <LCD_Update>
			LCD_Update ( COL1, ROW2, "Cut-Off   XX.XXV" );
    2f22:	47 e0       	ldi	r20, 0x07	; 7
    2f24:	56 e0       	ldi	r21, 0x06	; 6
    2f26:	b0 cf       	rjmp	.-160    	; 0x2e88 <Chargery_Parameter_Set+0x9e>
			break;

		case 12:
			LCD_Update ( COL6, ROW1, "Watt. Limit  (W)" );
    2f28:	48 e1       	ldi	r20, 0x18	; 24
    2f2a:	56 e0       	ldi	r21, 0x06	; 6
    2f2c:	60 e0       	ldi	r22, 0x00	; 0
    2f2e:	85 e0       	ldi	r24, 0x05	; 5
    2f30:	0e 94 4a 03 	call	0x694 <LCD_Update>
			LCD_Update ( COL1, ROW2, "CHG:AUTO DCHG:30" );
    2f34:	49 e2       	ldi	r20, 0x29	; 41
    2f36:	56 e0       	ldi	r21, 0x06	; 6
    2f38:	a7 cf       	rjmp	.-178    	; 0x2e88 <Chargery_Parameter_Set+0x9e>
			break;

		case 13:
			LCD_Update ( COL6, ROW1, "Key Beep     XXX" );
    2f3a:	4a e3       	ldi	r20, 0x3A	; 58
    2f3c:	56 e0       	ldi	r21, 0x06	; 6
    2f3e:	60 e0       	ldi	r22, 0x00	; 0
    2f40:	85 e0       	ldi	r24, 0x05	; 5
    2f42:	0e 94 4a 03 	call	0x694 <LCD_Update>
			LCD_Update ( COL1, ROW2, "Buzzer       XXX" );
    2f46:	4b e4       	ldi	r20, 0x4B	; 75
    2f48:	56 e0       	ldi	r21, 0x06	; 6
    2f4a:	9e cf       	rjmp	.-196    	; 0x2e88 <Chargery_Parameter_Set+0x9e>
			break;

		case 14:
			LCD_Update ( COL6, ROW1, "Completion Ring" );
    2f4c:	4c e5       	ldi	r20, 0x5C	; 92
    2f4e:	56 e0       	ldi	r21, 0x06	; 6
    2f50:	60 e0       	ldi	r22, 0x00	; 0
    2f52:	85 e0       	ldi	r24, 0x05	; 5
    2f54:	0e 94 4a 03 	call	0x694 <LCD_Update>
			LCD_Update ( COL1, ROW2, "  Beep   5times" );
    2f58:	4c e6       	ldi	r20, 0x6C	; 108
    2f5a:	56 e0       	ldi	r21, 0x06	; 6
    2f5c:	95 cf       	rjmp	.-214    	; 0x2e88 <Chargery_Parameter_Set+0x9e>
			break;

		case 15:
			LCD_Update ( COL6, ROW1, "Back-light   XX%" );
    2f5e:	4c e7       	ldi	r20, 0x7C	; 124
    2f60:	56 e0       	ldi	r21, 0x06	; 6
    2f62:	60 e0       	ldi	r22, 0x00	; 0
    2f64:	85 e0       	ldi	r24, 0x05	; 5
    2f66:	0e 94 4a 03 	call	0x694 <LCD_Update>
			LCD_Update ( COL1, ROW2, "Cooling fan XXXX" );
    2f6a:	4d e8       	ldi	r20, 0x8D	; 141
    2f6c:	56 e0       	ldi	r21, 0x06	; 6
    2f6e:	8c cf       	rjmp	.-232    	; 0x2e88 <Chargery_Parameter_Set+0x9e>

00002f70 <Chargery_Parameter_Resume>:
			break;

		default:
			break;
	}
}
//-----------------------------------------------------------------------------
// Chargery Parameter Resume Rountine
//-----------------------------------------------------------------------------
char Chargery_Parameter_Resume ( void )
{
	LCD_Update ( COL1, ROW1, "Resume Default?" );
    2f70:	4e e9       	ldi	r20, 0x9E	; 158
    2f72:	56 e0       	ldi	r21, 0x06	; 6
    2f74:	60 e0       	ldi	r22, 0x00	; 0
    2f76:	86 2f       	mov	r24, r22
    2f78:	0e 94 4a 03 	call	0x694 <LCD_Update>
	LCD_Update ( COL1, ROW2, "CONFIRM( ENTER)" );
    2f7c:	4e ea       	ldi	r20, 0xAE	; 174
    2f7e:	56 e0       	ldi	r21, 0x06	; 6
    2f80:	61 e0       	ldi	r22, 0x01	; 1
    2f82:	80 e0       	ldi	r24, 0x00	; 0
    2f84:	0e 94 4a 03 	call	0x694 <LCD_Update>

	LCD_Update ( COL1, ROW1, "PLEASE WAIT..." );
    2f88:	4e eb       	ldi	r20, 0xBE	; 190
    2f8a:	56 e0       	ldi	r21, 0x06	; 6
    2f8c:	60 e0       	ldi	r22, 0x00	; 0
    2f8e:	86 2f       	mov	r24, r22
    2f90:	0e 94 4a 03 	call	0x694 <LCD_Update>

	return 1;
}
    2f94:	81 e0       	ldi	r24, 0x01	; 1
    2f96:	90 e0       	ldi	r25, 0x00	; 0
    2f98:	08 95       	ret

00002f9a <ImA_VoltSerial_Set>:
//-----------------------------------------------------------------------------
// ImA VoltSerial Rountine
//-----------------------------------------------------------------------------
void ImA_VoltSerial_Set ( PSTMSG p, unsigned char * Line, unsigned char * str )
{
    2f9a:	cf 92       	push	r12
    2f9c:	df 92       	push	r13
    2f9e:	ef 92       	push	r14
    2fa0:	ff 92       	push	r15
    2fa2:	0f 93       	push	r16
    2fa4:	1f 93       	push	r17
    2fa6:	cf 93       	push	r28
    2fa8:	df 93       	push	r29
    2faa:	ec 01       	movw	r28, r24
    2fac:	7b 01       	movw	r14, r22
    2fae:	8a 01       	movw	r16, r20
	sprintf ( Line, "%s", Get_Item ( p, str, I_MA ));
    2fb0:	42 e0       	ldi	r20, 0x02	; 2
    2fb2:	b8 01       	movw	r22, r16
    2fb4:	0e 94 84 13 	call	0x2708 <Get_Item>
    2fb8:	bc 01       	movw	r22, r24
    2fba:	c7 01       	movw	r24, r14
    2fbc:	0e 94 f7 1c 	call	0x39ee <strcpy>
	sprintf ( Line + 4, "%12s", Get_Item ( p, str, VOLT_SERIAL ));
    2fc0:	44 e0       	ldi	r20, 0x04	; 4
    2fc2:	b8 01       	movw	r22, r16
    2fc4:	ce 01       	movw	r24, r28
    2fc6:	0e 94 84 13 	call	0x2708 <Get_Item>
    2fca:	9f 93       	push	r25
    2fcc:	8f 93       	push	r24
    2fce:	8d ec       	ldi	r24, 0xCD	; 205
    2fd0:	c8 2e       	mov	r12, r24
    2fd2:	86 e0       	ldi	r24, 0x06	; 6
    2fd4:	d8 2e       	mov	r13, r24
    2fd6:	df 92       	push	r13
    2fd8:	cf 92       	push	r12
    2fda:	87 01       	movw	r16, r14
    2fdc:	0c 5f       	subi	r16, 0xFC	; 252
    2fde:	1f 4f       	sbci	r17, 0xFF	; 255
    2fe0:	1f 93       	push	r17
    2fe2:	0f 93       	push	r16
    2fe4:	0e 94 fe 1c 	call	0x39fc <sprintf>
	if ( p->Menu.Sub == NO_SET ) return;
    2fe8:	2d b7       	in	r18, 0x3d	; 61
    2fea:	3e b7       	in	r19, 0x3e	; 62
    2fec:	2a 5f       	subi	r18, 0xFA	; 250
    2fee:	3f 4f       	sbci	r19, 0xFF	; 255
    2ff0:	0f b6       	in	r0, 0x3f	; 63
    2ff2:	f8 94       	cli
    2ff4:	3e bf       	out	0x3e, r19	; 62
    2ff6:	0f be       	out	0x3f, r0	; 63
    2ff8:	2d bf       	out	0x3d, r18	; 61
    2ffa:	2f 81       	ldd	r18, Y+7	; 0x07
    2ffc:	22 23       	and	r18, r18
    2ffe:	09 f4       	brne	.+2      	; 0x3002 <ImA_VoltSerial_Set+0x68>
    3000:	e6 c0       	rjmp	.+460    	; 0x31ce <ImA_VoltSerial_Set+0x234>
	p->Menu.Update = NEED;
    3002:	99 85       	ldd	r25, Y+9	; 0x09
	p->Menu.Toggle = ~p->Menu.Toggle;
    3004:	89 2f       	mov	r24, r25
    3006:	82 95       	swap	r24
    3008:	86 95       	lsr	r24
    300a:	87 70       	andi	r24, 0x07	; 7
    300c:	80 95       	com	r24
    300e:	81 70       	andi	r24, 0x01	; 1
    3010:	82 95       	swap	r24
    3012:	88 0f       	add	r24, r24
    3014:	80 7e       	andi	r24, 0xE0	; 224
    3016:	9f 79       	andi	r25, 0x9F	; 159
    3018:	98 2b       	or	r25, r24
    301a:	99 87       	std	Y+9, r25	; 0x09
	if ( p->Menu.Toggle == OFF ) return;
    301c:	95 ff       	sbrs	r25, 5
    301e:	d7 c0       	rjmp	.+430    	; 0x31ce <ImA_VoltSerial_Set+0x234>
	switch ( p->Menu.Sub )
    3020:	33 27       	eor	r19, r19
    3022:	21 30       	cpi	r18, 0x01	; 1
    3024:	31 05       	cpc	r19, r1
    3026:	29 f0       	breq	.+10     	; 0x3032 <ImA_VoltSerial_Set+0x98>
    3028:	22 30       	cpi	r18, 0x02	; 2
    302a:	31 05       	cpc	r19, r1
    302c:	09 f4       	brne	.+2      	; 0x3030 <ImA_VoltSerial_Set+0x96>
    302e:	4a c0       	rjmp	.+148    	; 0x30c4 <ImA_VoltSerial_Set+0x12a>
    3030:	ce c0       	rjmp	.+412    	; 0x31ce <ImA_VoltSerial_Set+0x234>
	{
		case 1:
			p->Menu.Seq_End = OFF;
    3032:	9b 7f       	andi	r25, 0xFB	; 251
    3034:	99 87       	std	Y+9, r25	; 0x09
			sprintf ( Line, "%4s", " " );
    3036:	82 ed       	ldi	r24, 0xD2	; 210
    3038:	96 e0       	ldi	r25, 0x06	; 6
    303a:	9f 93       	push	r25
    303c:	8f 93       	push	r24
    303e:	84 ed       	ldi	r24, 0xD4	; 212
    3040:	96 e0       	ldi	r25, 0x06	; 6
    3042:	9f 93       	push	r25
    3044:	8f 93       	push	r24
    3046:	ff 92       	push	r15
    3048:	ef 92       	push	r14
    304a:	0e 94 fe 1c 	call	0x39fc <sprintf>
			if ( p->Menu.Seq_Inc == ON )
    304e:	89 85       	ldd	r24, Y+9	; 0x09
    3050:	2d b7       	in	r18, 0x3d	; 61
    3052:	3e b7       	in	r19, 0x3e	; 62
    3054:	2a 5f       	subi	r18, 0xFA	; 250
    3056:	3f 4f       	sbci	r19, 0xFF	; 255
    3058:	0f b6       	in	r0, 0x3f	; 63
    305a:	f8 94       	cli
    305c:	3e bf       	out	0x3e, r19	; 62
    305e:	0f be       	out	0x3f, r0	; 63
    3060:	2d bf       	out	0x3d, r18	; 61
    3062:	83 ff       	sbrs	r24, 3
    3064:	16 c0       	rjmp	.+44     	; 0x3092 <ImA_VoltSerial_Set+0xf8>
			{
				p->Menu.Seq_Inc = OFF;
    3066:	87 7f       	andi	r24, 0xF7	; 247
    3068:	89 87       	std	Y+9, r24	; 0x09
				if 		( p->Batt.IA <  100  ) p->Batt.IA += 1;
    306a:	8c 85       	ldd	r24, Y+12	; 0x0c
    306c:	9d 85       	ldd	r25, Y+13	; 0x0d
    306e:	84 36       	cpi	r24, 0x64	; 100
    3070:	91 05       	cpc	r25, r1
    3072:	10 f4       	brcc	.+4      	; 0x3078 <ImA_VoltSerial_Set+0xde>
    3074:	01 96       	adiw	r24, 0x01	; 1
    3076:	23 c0       	rjmp	.+70     	; 0x30be <ImA_VoltSerial_Set+0x124>
				else if ( p->Batt.IA <  1000 ) p->Batt.IA += 10;
    3078:	33 e0       	ldi	r19, 0x03	; 3
    307a:	88 3e       	cpi	r24, 0xE8	; 232
    307c:	93 07       	cpc	r25, r19
    307e:	10 f4       	brcc	.+4      	; 0x3084 <ImA_VoltSerial_Set+0xea>
    3080:	0a 96       	adiw	r24, 0x0a	; 10
    3082:	1d c0       	rjmp	.+58     	; 0x30be <ImA_VoltSerial_Set+0x124>
				else if ( p->Batt.IA == 1000 ) p->Batt.IA  = 0;
    3084:	88 5e       	subi	r24, 0xE8	; 232
    3086:	93 40       	sbci	r25, 0x03	; 3
    3088:	09 f0       	breq	.+2      	; 0x308c <ImA_VoltSerial_Set+0xf2>
    308a:	a1 c0       	rjmp	.+322    	; 0x31ce <ImA_VoltSerial_Set+0x234>
    308c:	1d 86       	std	Y+13, r1	; 0x0d
    308e:	1c 86       	std	Y+12, r1	; 0x0c
    3090:	9e c0       	rjmp	.+316    	; 0x31ce <ImA_VoltSerial_Set+0x234>
				else ;
			}
			else if ( p->Menu.Seq_Dec == ON )
    3092:	84 ff       	sbrs	r24, 4
    3094:	9c c0       	rjmp	.+312    	; 0x31ce <ImA_VoltSerial_Set+0x234>
			{
				p->Menu.Seq_Dec = OFF;
    3096:	8f 7e       	andi	r24, 0xEF	; 239
    3098:	89 87       	std	Y+9, r24	; 0x09
				if 		( p->Batt.IA == 0    ) p->Batt.IA  = 1000;
    309a:	8c 85       	ldd	r24, Y+12	; 0x0c
    309c:	9d 85       	ldd	r25, Y+13	; 0x0d
    309e:	00 97       	sbiw	r24, 0x00	; 0
    30a0:	19 f4       	brne	.+6      	; 0x30a8 <ImA_VoltSerial_Set+0x10e>
    30a2:	88 ee       	ldi	r24, 0xE8	; 232
    30a4:	93 e0       	ldi	r25, 0x03	; 3
    30a6:	0b c0       	rjmp	.+22     	; 0x30be <ImA_VoltSerial_Set+0x124>
				else if ( p->Batt.IA <= 1000 ) p->Batt.IA -= 10;
    30a8:	33 e0       	ldi	r19, 0x03	; 3
    30aa:	89 3e       	cpi	r24, 0xE9	; 233
    30ac:	93 07       	cpc	r25, r19
    30ae:	10 f4       	brcc	.+4      	; 0x30b4 <ImA_VoltSerial_Set+0x11a>
    30b0:	0a 97       	sbiw	r24, 0x0a	; 10
    30b2:	05 c0       	rjmp	.+10     	; 0x30be <ImA_VoltSerial_Set+0x124>
				else if ( p->Batt.IA <  100  ) p->Batt.IA -= 1;
    30b4:	84 36       	cpi	r24, 0x64	; 100
    30b6:	91 05       	cpc	r25, r1
    30b8:	08 f0       	brcs	.+2      	; 0x30bc <ImA_VoltSerial_Set+0x122>
    30ba:	89 c0       	rjmp	.+274    	; 0x31ce <ImA_VoltSerial_Set+0x234>
    30bc:	01 97       	sbiw	r24, 0x01	; 1
    30be:	9d 87       	std	Y+13, r25	; 0x0d
    30c0:	8c 87       	std	Y+12, r24	; 0x0c
				else ;
			}
			else ;
			break;
    30c2:	85 c0       	rjmp	.+266    	; 0x31ce <ImA_VoltSerial_Set+0x234>

		case 2:
			p->Menu.Seq_End = ON;
    30c4:	94 60       	ori	r25, 0x04	; 4
    30c6:	99 87       	std	Y+9, r25	; 0x09
			sprintf ( Line + 4, "%12s", " " );
    30c8:	82 ed       	ldi	r24, 0xD2	; 210
    30ca:	96 e0       	ldi	r25, 0x06	; 6
    30cc:	9f 93       	push	r25
    30ce:	8f 93       	push	r24
    30d0:	df 92       	push	r13
    30d2:	cf 92       	push	r12
    30d4:	1f 93       	push	r17
    30d6:	0f 93       	push	r16
    30d8:	0e 94 fe 1c 	call	0x39fc <sprintf>
			if ( p->Menu.Seq_Inc == ON )
    30dc:	89 85       	ldd	r24, Y+9	; 0x09
    30de:	2d b7       	in	r18, 0x3d	; 61
    30e0:	3e b7       	in	r19, 0x3e	; 62
    30e2:	2a 5f       	subi	r18, 0xFA	; 250
    30e4:	3f 4f       	sbci	r19, 0xFF	; 255
    30e6:	0f b6       	in	r0, 0x3f	; 63
    30e8:	f8 94       	cli
    30ea:	3e bf       	out	0x3e, r19	; 62
    30ec:	0f be       	out	0x3f, r0	; 63
    30ee:	2d bf       	out	0x3d, r18	; 61
    30f0:	28 2f       	mov	r18, r24
    30f2:	28 70       	andi	r18, 0x08	; 8
    30f4:	83 ff       	sbrs	r24, 3
    30f6:	32 c0       	rjmp	.+100    	; 0x315c <ImA_VoltSerial_Set+0x1c2>
			{
				p->Menu.Seq_Inc = OFF;
    30f8:	87 7f       	andi	r24, 0xF7	; 247
    30fa:	89 87       	std	Y+9, r24	; 0x09
				if 		(( p->Batt.Pack == 0 ) && ( p->Batt.Serial == 11 ))
    30fc:	9a 89       	ldd	r25, Y+18	; 0x12
    30fe:	99 23       	and	r25, r25
    3100:	31 f4       	brne	.+12     	; 0x310e <ImA_VoltSerial_Set+0x174>
    3102:	8b 89       	ldd	r24, Y+19	; 0x13
    3104:	8b 30       	cpi	r24, 0x0B	; 11
    3106:	39 f5       	brne	.+78     	; 0x3156 <ImA_VoltSerial_Set+0x1bc>
						{  p->Batt.Pack =  1; 	    p->Batt.Serial =  1; }
    3108:	81 e0       	ldi	r24, 0x01	; 1
    310a:	8a 8b       	std	Y+18, r24	; 0x12
    310c:	5f c0       	rjmp	.+190    	; 0x31cc <ImA_VoltSerial_Set+0x232>
				else if (( p->Batt.Pack == 1 ) && ( p->Batt.Serial == 5  ))
    310e:	91 30       	cpi	r25, 0x01	; 1
    3110:	21 f4       	brne	.+8      	; 0x311a <ImA_VoltSerial_Set+0x180>
    3112:	8b 89       	ldd	r24, Y+19	; 0x13
    3114:	85 30       	cpi	r24, 0x05	; 5
    3116:	f9 f4       	brne	.+62     	; 0x3156 <ImA_VoltSerial_Set+0x1bc>
    3118:	43 c0       	rjmp	.+134    	; 0x31a0 <ImA_VoltSerial_Set+0x206>
						{  p->Batt.Pack =  2; 		p->Batt.Serial =  1; }
				else if (( p->Batt.Pack == 2 ) && ( p->Batt.Serial == 3  ))
    311a:	92 30       	cpi	r25, 0x02	; 2
    311c:	21 f4       	brne	.+8      	; 0x3126 <ImA_VoltSerial_Set+0x18c>
    311e:	8b 89       	ldd	r24, Y+19	; 0x13
    3120:	83 30       	cpi	r24, 0x03	; 3
    3122:	c9 f4       	brne	.+50     	; 0x3156 <ImA_VoltSerial_Set+0x1bc>
    3124:	06 c0       	rjmp	.+12     	; 0x3132 <ImA_VoltSerial_Set+0x198>
						{  p->Batt.Pack =  3; 		p->Batt.Serial =  1; }
				else if (( p->Batt.Pack == 3 ) && ( p->Batt.Serial == 2  ))
    3126:	93 30       	cpi	r25, 0x03	; 3
    3128:	39 f4       	brne	.+14     	; 0x3138 <ImA_VoltSerial_Set+0x19e>
    312a:	8b 89       	ldd	r24, Y+19	; 0x13
    312c:	82 30       	cpi	r24, 0x02	; 2
    312e:	99 f4       	brne	.+38     	; 0x3156 <ImA_VoltSerial_Set+0x1bc>
						{  p->Batt.Pack =  4; 		p->Batt.Serial =  1; }
    3130:	84 e0       	ldi	r24, 0x04	; 4
    3132:	8a 8b       	std	Y+18, r24	; 0x12
    3134:	81 e0       	ldi	r24, 0x01	; 1
    3136:	4a c0       	rjmp	.+148    	; 0x31cc <ImA_VoltSerial_Set+0x232>
				else if (( p->Batt.Pack == 4 ) && ( p->Batt.Serial == 1  ))
    3138:	94 30       	cpi	r25, 0x04	; 4
    313a:	29 f4       	brne	.+10     	; 0x3146 <ImA_VoltSerial_Set+0x1ac>
    313c:	9b 89       	ldd	r25, Y+19	; 0x13
    313e:	91 30       	cpi	r25, 0x01	; 1
    3140:	51 f4       	brne	.+20     	; 0x3156 <ImA_VoltSerial_Set+0x1bc>
						{  p->Batt.Pack =  5; 		p->Batt.Serial =  1; }
    3142:	85 e0       	ldi	r24, 0x05	; 5
    3144:	1d c0       	rjmp	.+58     	; 0x3180 <ImA_VoltSerial_Set+0x1e6>
				else if (( p->Batt.Pack == 5 ) && ( p->Batt.Serial == 1  ))
    3146:	95 30       	cpi	r25, 0x05	; 5
    3148:	31 f4       	brne	.+12     	; 0x3156 <ImA_VoltSerial_Set+0x1bc>
    314a:	8b 89       	ldd	r24, Y+19	; 0x13
    314c:	81 30       	cpi	r24, 0x01	; 1
    314e:	19 f4       	brne	.+6      	; 0x3156 <ImA_VoltSerial_Set+0x1bc>
						{  p->Batt.Pack =  0; 		p->Batt.Serial = 0; }
    3150:	1a 8a       	std	Y+18, r1	; 0x12
    3152:	1b 8a       	std	Y+19, r1	; 0x13
    3154:	3c c0       	rjmp	.+120    	; 0x31ce <ImA_VoltSerial_Set+0x234>
				else						 	    p->Batt.Serial++;
    3156:	8b 89       	ldd	r24, Y+19	; 0x13
    3158:	8f 5f       	subi	r24, 0xFF	; 255
    315a:	38 c0       	rjmp	.+112    	; 0x31cc <ImA_VoltSerial_Set+0x232>
			}
			else if ( p->Menu.Seq_Dec == ON )
    315c:	84 ff       	sbrs	r24, 4
    315e:	37 c0       	rjmp	.+110    	; 0x31ce <ImA_VoltSerial_Set+0x234>
			{
				p->Menu.Seq_Dec = OFF;
    3160:	8f 7e       	andi	r24, 0xEF	; 239
    3162:	89 87       	std	Y+9, r24	; 0x09
				if 		(( p->Batt.Pack == 0 ) && ( p->Batt.Serial == 0 ))
    3164:	9a 89       	ldd	r25, Y+18	; 0x12
    3166:	99 23       	and	r25, r25
    3168:	29 f4       	brne	.+10     	; 0x3174 <ImA_VoltSerial_Set+0x1da>
    316a:	8b 89       	ldd	r24, Y+19	; 0x13
    316c:	88 23       	and	r24, r24
    316e:	61 f5       	brne	.+88     	; 0x31c8 <ImA_VoltSerial_Set+0x22e>
						{  p->Batt.Pack =  5; 	    p->Batt.Serial =  1; }
    3170:	85 e0       	ldi	r24, 0x05	; 5
    3172:	df cf       	rjmp	.-66     	; 0x3132 <ImA_VoltSerial_Set+0x198>
				else if (( p->Batt.Pack == 5 ) && ( p->Batt.Serial == 1  ))
    3174:	95 30       	cpi	r25, 0x05	; 5
    3176:	31 f4       	brne	.+12     	; 0x3184 <ImA_VoltSerial_Set+0x1ea>
    3178:	9b 89       	ldd	r25, Y+19	; 0x13
    317a:	91 30       	cpi	r25, 0x01	; 1
    317c:	29 f5       	brne	.+74     	; 0x31c8 <ImA_VoltSerial_Set+0x22e>
						{  p->Batt.Pack =  4; 		p->Batt.Serial =  1; }
    317e:	84 e0       	ldi	r24, 0x04	; 4
    3180:	8a 8b       	std	Y+18, r24	; 0x12
    3182:	25 c0       	rjmp	.+74     	; 0x31ce <ImA_VoltSerial_Set+0x234>
				else if (( p->Batt.Pack == 4 ) && ( p->Batt.Serial == 1  ))
    3184:	94 30       	cpi	r25, 0x04	; 4
    3186:	39 f4       	brne	.+14     	; 0x3196 <ImA_VoltSerial_Set+0x1fc>
    3188:	8b 89       	ldd	r24, Y+19	; 0x13
    318a:	81 30       	cpi	r24, 0x01	; 1
    318c:	e9 f4       	brne	.+58     	; 0x31c8 <ImA_VoltSerial_Set+0x22e>
						{  p->Batt.Pack =  3; 		p->Batt.Serial =  2; }
    318e:	83 e0       	ldi	r24, 0x03	; 3
    3190:	8a 8b       	std	Y+18, r24	; 0x12
    3192:	82 e0       	ldi	r24, 0x02	; 2
    3194:	1b c0       	rjmp	.+54     	; 0x31cc <ImA_VoltSerial_Set+0x232>
				else if (( p->Batt.Pack == 3 ) && ( p->Batt.Serial == 1  ))
    3196:	93 30       	cpi	r25, 0x03	; 3
    3198:	39 f4       	brne	.+14     	; 0x31a8 <ImA_VoltSerial_Set+0x20e>
    319a:	8b 89       	ldd	r24, Y+19	; 0x13
    319c:	81 30       	cpi	r24, 0x01	; 1
    319e:	a1 f4       	brne	.+40     	; 0x31c8 <ImA_VoltSerial_Set+0x22e>
						{  p->Batt.Pack =  2; 		p->Batt.Serial =  3; }
    31a0:	82 e0       	ldi	r24, 0x02	; 2
    31a2:	8a 8b       	std	Y+18, r24	; 0x12
    31a4:	9b 8b       	std	Y+19, r25	; 0x13
    31a6:	13 c0       	rjmp	.+38     	; 0x31ce <ImA_VoltSerial_Set+0x234>
				else if (( p->Batt.Pack == 2 ) && ( p->Batt.Serial == 1  ))
    31a8:	92 30       	cpi	r25, 0x02	; 2
    31aa:	31 f4       	brne	.+12     	; 0x31b8 <ImA_VoltSerial_Set+0x21e>
    31ac:	8b 89       	ldd	r24, Y+19	; 0x13
    31ae:	81 30       	cpi	r24, 0x01	; 1
    31b0:	59 f4       	brne	.+22     	; 0x31c8 <ImA_VoltSerial_Set+0x22e>
						{  p->Batt.Pack =  1; 		p->Batt.Serial =  5; }
    31b2:	8a 8b       	std	Y+18, r24	; 0x12
    31b4:	85 e0       	ldi	r24, 0x05	; 5
    31b6:	0a c0       	rjmp	.+20     	; 0x31cc <ImA_VoltSerial_Set+0x232>
				else if (( p->Batt.Pack == 1 ) && ( p->Batt.Serial == 1  ))
    31b8:	91 30       	cpi	r25, 0x01	; 1
    31ba:	31 f4       	brne	.+12     	; 0x31c8 <ImA_VoltSerial_Set+0x22e>
    31bc:	8b 89       	ldd	r24, Y+19	; 0x13
    31be:	81 30       	cpi	r24, 0x01	; 1
    31c0:	19 f4       	brne	.+6      	; 0x31c8 <ImA_VoltSerial_Set+0x22e>
						{  p->Batt.Pack =  0; 		p->Batt.Serial =  11; }
    31c2:	2a 8b       	std	Y+18, r18	; 0x12
    31c4:	8b e0       	ldi	r24, 0x0B	; 11
    31c6:	02 c0       	rjmp	.+4      	; 0x31cc <ImA_VoltSerial_Set+0x232>
				else						 	    p->Batt.Serial--;
    31c8:	8b 89       	ldd	r24, Y+19	; 0x13
    31ca:	81 50       	subi	r24, 0x01	; 1
    31cc:	8b 8b       	std	Y+19, r24	; 0x13
    31ce:	df 91       	pop	r29
    31d0:	cf 91       	pop	r28
    31d2:	1f 91       	pop	r17
    31d4:	0f 91       	pop	r16
    31d6:	ff 90       	pop	r15
    31d8:	ef 90       	pop	r14
    31da:	df 90       	pop	r13
    31dc:	cf 90       	pop	r12
    31de:	08 95       	ret

000031e0 <Capacity_ICA_Set>:
			}
			else ;
			break;

		default:
			break;
	}
}
//-----------------------------------------------------------------------------
// Capacity ICA Set Rountine
//-----------------------------------------------------------------------------
void Capacity_ICA_Set ( PSTMSG p, unsigned char * Line, unsigned char * str )
{
    31e0:	cf 92       	push	r12
    31e2:	df 92       	push	r13
    31e4:	ef 92       	push	r14
    31e6:	ff 92       	push	r15
    31e8:	0f 93       	push	r16
    31ea:	1f 93       	push	r17
    31ec:	cf 93       	push	r28
    31ee:	df 93       	push	r29
    31f0:	ec 01       	movw	r28, r24
    31f2:	7b 01       	movw	r14, r22
    31f4:	8a 01       	movw	r16, r20
	sprintf ( Line, "%s", Get_Item ( p, str, CAPACITY_LMT ));
    31f6:	4c e0       	ldi	r20, 0x0C	; 12
    31f8:	b8 01       	movw	r22, r16
    31fa:	0e 94 84 13 	call	0x2708 <Get_Item>
    31fe:	bc 01       	movw	r22, r24
    3200:	c7 01       	movw	r24, r14
    3202:	0e 94 f7 1c 	call	0x39ee <strcpy>
	sprintf ( Line + 8, "%8s", Get_Item ( p, str, I_CA ));
    3206:	43 e0       	ldi	r20, 0x03	; 3
    3208:	b8 01       	movw	r22, r16
    320a:	ce 01       	movw	r24, r28
    320c:	0e 94 84 13 	call	0x2708 <Get_Item>
    3210:	9f 93       	push	r25
    3212:	8f 93       	push	r24
    3214:	08 ed       	ldi	r16, 0xD8	; 216
    3216:	16 e0       	ldi	r17, 0x06	; 6
    3218:	1f 93       	push	r17
    321a:	0f 93       	push	r16
    321c:	98 e0       	ldi	r25, 0x08	; 8
    321e:	c9 2e       	mov	r12, r25
    3220:	d1 2c       	mov	r13, r1
    3222:	ce 0c       	add	r12, r14
    3224:	df 1c       	adc	r13, r15
    3226:	df 92       	push	r13
    3228:	cf 92       	push	r12
    322a:	0e 94 fe 1c 	call	0x39fc <sprintf>
	if ( p->Menu.Sub == NO_SET ) return;
    322e:	2d b7       	in	r18, 0x3d	; 61
    3230:	3e b7       	in	r19, 0x3e	; 62
    3232:	2a 5f       	subi	r18, 0xFA	; 250
    3234:	3f 4f       	sbci	r19, 0xFF	; 255
    3236:	0f b6       	in	r0, 0x3f	; 63
    3238:	f8 94       	cli
    323a:	3e bf       	out	0x3e, r19	; 62
    323c:	0f be       	out	0x3f, r0	; 63
    323e:	2d bf       	out	0x3d, r18	; 61
    3240:	2f 81       	ldd	r18, Y+7	; 0x07
    3242:	22 23       	and	r18, r18
    3244:	09 f4       	brne	.+2      	; 0x3248 <Capacity_ICA_Set+0x68>
    3246:	66 c0       	rjmp	.+204    	; 0x3314 <Capacity_ICA_Set+0x134>
	p->Menu.Update = NEED;
    3248:	99 85       	ldd	r25, Y+9	; 0x09
	p->Menu.Toggle = ~p->Menu.Toggle;
    324a:	89 2f       	mov	r24, r25
    324c:	82 95       	swap	r24
    324e:	86 95       	lsr	r24
    3250:	87 70       	andi	r24, 0x07	; 7
    3252:	80 95       	com	r24
    3254:	81 70       	andi	r24, 0x01	; 1
    3256:	82 95       	swap	r24
    3258:	88 0f       	add	r24, r24
    325a:	80 7e       	andi	r24, 0xE0	; 224
    325c:	9f 79       	andi	r25, 0x9F	; 159
    325e:	98 2b       	or	r25, r24
    3260:	99 87       	std	Y+9, r25	; 0x09
	if ( p->Menu.Toggle == OFF ) return;
    3262:	95 ff       	sbrs	r25, 5
    3264:	57 c0       	rjmp	.+174    	; 0x3314 <Capacity_ICA_Set+0x134>
	switch ( p->Menu.Sub )
    3266:	33 27       	eor	r19, r19
    3268:	21 30       	cpi	r18, 0x01	; 1
    326a:	31 05       	cpc	r19, r1
    326c:	21 f0       	breq	.+8      	; 0x3276 <Capacity_ICA_Set+0x96>
    326e:	22 30       	cpi	r18, 0x02	; 2
    3270:	31 05       	cpc	r19, r1
    3272:	49 f1       	breq	.+82     	; 0x32c6 <Capacity_ICA_Set+0xe6>
    3274:	4f c0       	rjmp	.+158    	; 0x3314 <Capacity_ICA_Set+0x134>
	{
		case 1:
			p->Menu.Seq_End = OFF;
    3276:	9b 7f       	andi	r25, 0xFB	; 251
    3278:	99 87       	std	Y+9, r25	; 0x09
			sprintf ( Line, "%8s", " " );
    327a:	82 ed       	ldi	r24, 0xD2	; 210
    327c:	96 e0       	ldi	r25, 0x06	; 6
    327e:	9f 93       	push	r25
    3280:	8f 93       	push	r24
    3282:	1f 93       	push	r17
    3284:	0f 93       	push	r16
    3286:	ff 92       	push	r15
    3288:	ef 92       	push	r14
    328a:	0e 94 fe 1c 	call	0x39fc <sprintf>
			if ( p->Menu.Seq_Inc == ON )
    328e:	89 85       	ldd	r24, Y+9	; 0x09
    3290:	2d b7       	in	r18, 0x3d	; 61
    3292:	3e b7       	in	r19, 0x3e	; 62
    3294:	2a 5f       	subi	r18, 0xFA	; 250
    3296:	3f 4f       	sbci	r19, 0xFF	; 255
    3298:	0f b6       	in	r0, 0x3f	; 63
    329a:	f8 94       	cli
    329c:	3e bf       	out	0x3e, r19	; 62
    329e:	0f be       	out	0x3f, r0	; 63
    32a0:	2d bf       	out	0x3d, r18	; 61
    32a2:	83 ff       	sbrs	r24, 3
    32a4:	06 c0       	rjmp	.+12     	; 0x32b2 <Capacity_ICA_Set+0xd2>
			{
				p->Menu.Seq_Inc = OFF;
    32a6:	87 7f       	andi	r24, 0xF7	; 247
    32a8:	89 87       	std	Y+9, r24	; 0x09
				p->Batt.mAh += 1;
    32aa:	8e 85       	ldd	r24, Y+14	; 0x0e
    32ac:	9f 85       	ldd	r25, Y+15	; 0x0f
    32ae:	01 96       	adiw	r24, 0x01	; 1
    32b0:	07 c0       	rjmp	.+14     	; 0x32c0 <Capacity_ICA_Set+0xe0>
			}
			else if ( p->Menu.Seq_Dec == ON )
    32b2:	84 ff       	sbrs	r24, 4
    32b4:	2f c0       	rjmp	.+94     	; 0x3314 <Capacity_ICA_Set+0x134>
			{
				p->Menu.Seq_Dec = OFF;
    32b6:	8f 7e       	andi	r24, 0xEF	; 239
    32b8:	89 87       	std	Y+9, r24	; 0x09
				p->Batt.mAh -= 1;
    32ba:	8e 85       	ldd	r24, Y+14	; 0x0e
    32bc:	9f 85       	ldd	r25, Y+15	; 0x0f
    32be:	01 97       	sbiw	r24, 0x01	; 1
    32c0:	9f 87       	std	Y+15, r25	; 0x0f
    32c2:	8e 87       	std	Y+14, r24	; 0x0e
			}
			else ;
			break;
    32c4:	27 c0       	rjmp	.+78     	; 0x3314 <Capacity_ICA_Set+0x134>

		case 2:
			p->Menu.Seq_End = ON;
    32c6:	94 60       	ori	r25, 0x04	; 4
    32c8:	99 87       	std	Y+9, r25	; 0x09
			sprintf ( Line + 8, "%8s", " " );
    32ca:	82 ed       	ldi	r24, 0xD2	; 210
    32cc:	96 e0       	ldi	r25, 0x06	; 6
    32ce:	9f 93       	push	r25
    32d0:	8f 93       	push	r24
    32d2:	1f 93       	push	r17
    32d4:	0f 93       	push	r16
    32d6:	df 92       	push	r13
    32d8:	cf 92       	push	r12
    32da:	0e 94 fe 1c 	call	0x39fc <sprintf>
			if ( p->Menu.Seq_Inc == ON )
    32de:	89 85       	ldd	r24, Y+9	; 0x09
    32e0:	2d b7       	in	r18, 0x3d	; 61
    32e2:	3e b7       	in	r19, 0x3e	; 62
    32e4:	2a 5f       	subi	r18, 0xFA	; 250
    32e6:	3f 4f       	sbci	r19, 0xFF	; 255
    32e8:	0f b6       	in	r0, 0x3f	; 63
    32ea:	f8 94       	cli
    32ec:	3e bf       	out	0x3e, r19	; 62
    32ee:	0f be       	out	0x3f, r0	; 63
    32f0:	2d bf       	out	0x3d, r18	; 61
    32f2:	83 ff       	sbrs	r24, 3
    32f4:	06 c0       	rjmp	.+12     	; 0x3302 <Capacity_ICA_Set+0x122>
			{
				p->Menu.Seq_Inc = OFF;
    32f6:	87 7f       	andi	r24, 0xF7	; 247
    32f8:	89 87       	std	Y+9, r24	; 0x09
				p->Batt.IA++;
    32fa:	8c 85       	ldd	r24, Y+12	; 0x0c
    32fc:	9d 85       	ldd	r25, Y+13	; 0x0d
    32fe:	01 96       	adiw	r24, 0x01	; 1
    3300:	07 c0       	rjmp	.+14     	; 0x3310 <Capacity_ICA_Set+0x130>
			}
			else if ( p->Menu.Seq_Dec == ON )
    3302:	84 ff       	sbrs	r24, 4
    3304:	07 c0       	rjmp	.+14     	; 0x3314 <Capacity_ICA_Set+0x134>
			{
				p->Menu.Seq_Dec = OFF;
    3306:	8f 7e       	andi	r24, 0xEF	; 239
    3308:	89 87       	std	Y+9, r24	; 0x09
				p->Batt.IA--;
    330a:	8c 85       	ldd	r24, Y+12	; 0x0c
    330c:	9d 85       	ldd	r25, Y+13	; 0x0d
    330e:	01 97       	sbiw	r24, 0x01	; 1
    3310:	9d 87       	std	Y+13, r25	; 0x0d
    3312:	8c 87       	std	Y+12, r24	; 0x0c
    3314:	df 91       	pop	r29
    3316:	cf 91       	pop	r28
    3318:	1f 91       	pop	r17
    331a:	0f 91       	pop	r16
    331c:	ff 90       	pop	r15
    331e:	ef 90       	pop	r14
    3320:	df 90       	pop	r13
    3322:	cf 90       	pop	r12
    3324:	08 95       	ret

00003326 <Cycle_Volt_Set>:
			}
			else ;
			break;

		default:
			break;
	}
}
//-----------------------------------------------------------------------------
// Cycle Items Set Rountine
//-----------------------------------------------------------------------------
void Cycle_Items_Set ( PSTMSG p, unsigned char * Line, unsigned char * str )
{
	if ( p->Menu.Sub == NO_SET ) return;
	p->Menu.Update = NEED;
	p->Menu.Toggle = ~p->Menu.Toggle;
	if ( p->Menu.Toggle == OFF ) return;
	switch ( p->Menu.Sub )
	{
		case 1:
			p->Menu.Seq_End = OFF;
			sprintf ( Line + 10, "%s", " " );
			if ( p->Menu.Seq_Inc == ON )
			{
				p->Menu.Seq_Inc = OFF;
				if (( p->Batt.Cycle.Form &  TIMES ) <  4 ) p->Batt.Cycle.Form += 1;
				else  p->Batt.Cycle.Form &=~TIMES;
			}
			else if ( p->Menu.Seq_Dec == ON )
			{
				p->Menu.Seq_Dec = OFF;
				if (( p->Batt.Cycle.Form & TIMES ) != 0 ) p->Batt.Cycle.Form -= 1;
				else  p->Batt.Cycle.Form |= 4;
			}
			else ;
			break;

		case 2:
			sprintf ( Line, "%s", " " );
			sprintf ( Line + 9, "%s", " " );
			if (( p->Menu.Seq_Inc == ON )||( p->Menu.Seq_Dec == ON ))
			{
				p->Menu.Seq_Inc = OFF;
				p->Menu.Seq_Dec = OFF;
				p->Batt.Cycle.Form += D_C;
			}
			break;

		case 3:
			sprintf ( Line +  2, "%5s", " " );
			Cycle_Volt_Set ( p, D_C );
			break;

		case 4:
			p->Menu.Seq_End = ON;
			sprintf ( Line + 11, "%5s", " " );
			Cycle_Volt_Set ( p, C_D );
			break;

		default:
			break;
	}
}
//-----------------------------------------------------------------------------
// Cycle Volt Set Rountine
//-----------------------------------------------------------------------------
void Cycle_Volt_Set ( PSTMSG p, unsigned char Direct )
{
    3326:	fc 01       	movw	r30, r24
	if ( p->Menu.Seq_Inc == ON )
    3328:	81 85       	ldd	r24, Z+9	; 0x09
    332a:	83 ff       	sbrs	r24, 3
    332c:	14 c0       	rjmp	.+40     	; 0x3356 <Cycle_Volt_Set+0x30>
	{
		p->Menu.Seq_Inc = OFF;
    332e:	87 7f       	andi	r24, 0xF7	; 247
    3330:	81 87       	std	Z+9, r24	; 0x09
		if ( p->Batt.Cycle.Form & Direct )
    3332:	84 89       	ldd	r24, Z+20	; 0x14
    3334:	86 23       	and	r24, r22
    3336:	39 f0       	breq	.+14     	; 0x3346 <Cycle_Volt_Set+0x20>
		{
			if ( p->Batt.Cycle.Volt.Discharge != 120 ) 
    3338:	86 89       	ldd	r24, Z+22	; 0x16
    333a:	88 37       	cpi	r24, 0x78	; 120
    333c:	11 f0       	breq	.+4      	; 0x3342 <Cycle_Volt_Set+0x1c>
			     p->Batt.Cycle.Volt.Discharge += 1;
    333e:	8f 5f       	subi	r24, 0xFF	; 255
    3340:	15 c0       	rjmp	.+42     	; 0x336c <Cycle_Volt_Set+0x46>
			else p->Batt.Cycle.Volt.Discharge  = 0;			
    3342:	16 8a       	std	Z+22, r1	; 0x16
    3344:	08 95       	ret
		}
		else
		{
			if ( p->Batt.Cycle.Volt.Charge != 0 )
    3346:	85 89       	ldd	r24, Z+21	; 0x15
    3348:	88 23       	and	r24, r24
    334a:	11 f0       	breq	.+4      	; 0x3350 <Cycle_Volt_Set+0x2a>
			     p->Batt.Cycle.Volt.Charge -= 1;
    334c:	81 50       	subi	r24, 0x01	; 1
    334e:	01 c0       	rjmp	.+2      	; 0x3352 <Cycle_Volt_Set+0x2c>
			else p->Batt.Cycle.Volt.Charge  = 120;				
    3350:	88 e7       	ldi	r24, 0x78	; 120
    3352:	85 8b       	std	Z+21, r24	; 0x15
    3354:	08 95       	ret
		}
	}
	else if ( p->Menu.Seq_Dec == ON )
    3356:	84 ff       	sbrs	r24, 4
    3358:	13 c0       	rjmp	.+38     	; 0x3380 <Cycle_Volt_Set+0x5a>
	{
		p->Menu.Seq_Dec = OFF;
    335a:	8f 7e       	andi	r24, 0xEF	; 239
    335c:	81 87       	std	Z+9, r24	; 0x09
		if ( p->Batt.Cycle.Form & Direct )
    335e:	94 89       	ldd	r25, Z+20	; 0x14
    3360:	96 23       	and	r25, r22
    3362:	41 f0       	breq	.+16     	; 0x3374 <Cycle_Volt_Set+0x4e>
		{
			if ( p->Batt.Cycle.Volt.Discharge != 0 )
    3364:	86 89       	ldd	r24, Z+22	; 0x16
    3366:	88 23       	and	r24, r24
    3368:	19 f0       	breq	.+6      	; 0x3370 <Cycle_Volt_Set+0x4a>
			     p->Batt.Cycle.Volt.Discharge -= 1;
    336a:	81 50       	subi	r24, 0x01	; 1
    336c:	86 8b       	std	Z+22, r24	; 0x16
    336e:	08 95       	ret
			else p->Batt.Cycle.Volt.Discharge  = 120;
    3370:	88 e7       	ldi	r24, 0x78	; 120
    3372:	fc cf       	rjmp	.-8      	; 0x336c <Cycle_Volt_Set+0x46>
		}
		else
		{
			if ( p->Batt.Cycle.Volt.Charge != 120 )
    3374:	85 89       	ldd	r24, Z+21	; 0x15
    3376:	88 37       	cpi	r24, 0x78	; 120
    3378:	11 f0       	breq	.+4      	; 0x337e <Cycle_Volt_Set+0x58>
			     p->Batt.Cycle.Volt.Charge += 1;
    337a:	8f 5f       	subi	r24, 0xFF	; 255
    337c:	ea cf       	rjmp	.-44     	; 0x3352 <Cycle_Volt_Set+0x2c>
			else p->Batt.Cycle.Volt.Charge  = 0;
    337e:	95 8b       	std	Z+21, r25	; 0x15
    3380:	08 95       	ret

00003382 <Cycle_Items_Set>:
    3382:	cf 93       	push	r28
    3384:	df 93       	push	r29
    3386:	ec 01       	movw	r28, r24
    3388:	fb 01       	movw	r30, r22
    338a:	2f 81       	ldd	r18, Y+7	; 0x07
    338c:	22 23       	and	r18, r18
    338e:	09 f4       	brne	.+2      	; 0x3392 <Cycle_Items_Set+0x10>
    3390:	82 c0       	rjmp	.+260    	; 0x3496 <Cycle_Items_Set+0x114>
    3392:	99 85       	ldd	r25, Y+9	; 0x09
    3394:	89 2f       	mov	r24, r25
    3396:	82 95       	swap	r24
    3398:	86 95       	lsr	r24
    339a:	87 70       	andi	r24, 0x07	; 7
    339c:	80 95       	com	r24
    339e:	81 70       	andi	r24, 0x01	; 1
    33a0:	82 95       	swap	r24
    33a2:	88 0f       	add	r24, r24
    33a4:	80 7e       	andi	r24, 0xE0	; 224
    33a6:	9f 79       	andi	r25, 0x9F	; 159
    33a8:	98 2b       	or	r25, r24
    33aa:	99 87       	std	Y+9, r25	; 0x09
    33ac:	95 ff       	sbrs	r25, 5
    33ae:	73 c0       	rjmp	.+230    	; 0x3496 <Cycle_Items_Set+0x114>
    33b0:	33 27       	eor	r19, r19
    33b2:	22 30       	cpi	r18, 0x02	; 2
    33b4:	31 05       	cpc	r19, r1
    33b6:	a9 f1       	breq	.+106    	; 0x3422 <Cycle_Items_Set+0xa0>
    33b8:	23 30       	cpi	r18, 0x03	; 3
    33ba:	31 05       	cpc	r19, r1
    33bc:	24 f4       	brge	.+8      	; 0x33c6 <Cycle_Items_Set+0x44>
    33be:	21 30       	cpi	r18, 0x01	; 1
    33c0:	31 05       	cpc	r19, r1
    33c2:	49 f0       	breq	.+18     	; 0x33d6 <Cycle_Items_Set+0x54>
    33c4:	68 c0       	rjmp	.+208    	; 0x3496 <Cycle_Items_Set+0x114>
    33c6:	23 30       	cpi	r18, 0x03	; 3
    33c8:	31 05       	cpc	r19, r1
    33ca:	d9 f1       	breq	.+118    	; 0x3442 <Cycle_Items_Set+0xc0>
    33cc:	24 30       	cpi	r18, 0x04	; 4
    33ce:	31 05       	cpc	r19, r1
    33d0:	09 f4       	brne	.+2      	; 0x33d4 <Cycle_Items_Set+0x52>
    33d2:	46 c0       	rjmp	.+140    	; 0x3460 <Cycle_Items_Set+0xde>
    33d4:	60 c0       	rjmp	.+192    	; 0x3496 <Cycle_Items_Set+0x114>
    33d6:	9b 7f       	andi	r25, 0xFB	; 251
    33d8:	99 87       	std	Y+9, r25	; 0x09
    33da:	80 e2       	ldi	r24, 0x20	; 32
    33dc:	90 e0       	ldi	r25, 0x00	; 0
    33de:	93 87       	std	Z+11, r25	; 0x0b
    33e0:	82 87       	std	Z+10, r24	; 0x0a
    33e2:	89 85       	ldd	r24, Y+9	; 0x09
    33e4:	83 ff       	sbrs	r24, 3
    33e6:	0d c0       	rjmp	.+26     	; 0x3402 <Cycle_Items_Set+0x80>
    33e8:	87 7f       	andi	r24, 0xF7	; 247
    33ea:	89 87       	std	Y+9, r24	; 0x09
    33ec:	2c 89       	ldd	r18, Y+20	; 0x14
    33ee:	82 2f       	mov	r24, r18
    33f0:	99 27       	eor	r25, r25
    33f2:	87 70       	andi	r24, 0x07	; 7
    33f4:	90 70       	andi	r25, 0x00	; 0
    33f6:	04 97       	sbiw	r24, 0x04	; 4
    33f8:	14 f4       	brge	.+4      	; 0x33fe <Cycle_Items_Set+0x7c>
    33fa:	2f 5f       	subi	r18, 0xFF	; 255
    33fc:	10 c0       	rjmp	.+32     	; 0x341e <Cycle_Items_Set+0x9c>
    33fe:	28 7f       	andi	r18, 0xF8	; 248
    3400:	0e c0       	rjmp	.+28     	; 0x341e <Cycle_Items_Set+0x9c>
    3402:	84 ff       	sbrs	r24, 4
    3404:	48 c0       	rjmp	.+144    	; 0x3496 <Cycle_Items_Set+0x114>
    3406:	8f 7e       	andi	r24, 0xEF	; 239
    3408:	89 87       	std	Y+9, r24	; 0x09
    340a:	2c 89       	ldd	r18, Y+20	; 0x14
    340c:	82 2f       	mov	r24, r18
    340e:	99 27       	eor	r25, r25
    3410:	87 70       	andi	r24, 0x07	; 7
    3412:	90 70       	andi	r25, 0x00	; 0
    3414:	89 2b       	or	r24, r25
    3416:	11 f0       	breq	.+4      	; 0x341c <Cycle_Items_Set+0x9a>
    3418:	21 50       	subi	r18, 0x01	; 1
    341a:	01 c0       	rjmp	.+2      	; 0x341e <Cycle_Items_Set+0x9c>
    341c:	24 60       	ori	r18, 0x04	; 4
    341e:	2c 8b       	std	Y+20, r18	; 0x14
    3420:	3a c0       	rjmp	.+116    	; 0x3496 <Cycle_Items_Set+0x114>
    3422:	80 e2       	ldi	r24, 0x20	; 32
    3424:	90 e0       	ldi	r25, 0x00	; 0
    3426:	91 83       	std	Z+1, r25	; 0x01
    3428:	80 83       	st	Z, r24
    342a:	92 87       	std	Z+10, r25	; 0x0a
    342c:	81 87       	std	Z+9, r24	; 0x09
    342e:	99 85       	ldd	r25, Y+9	; 0x09
    3430:	89 2f       	mov	r24, r25
    3432:	88 71       	andi	r24, 0x18	; 24
    3434:	81 f1       	breq	.+96     	; 0x3496 <Cycle_Items_Set+0x114>
    3436:	97 7e       	andi	r25, 0xE7	; 231
    3438:	99 87       	std	Y+9, r25	; 0x09
    343a:	8c 89       	ldd	r24, Y+20	; 0x14
    343c:	80 58       	subi	r24, 0x80	; 128
    343e:	8c 8b       	std	Y+20, r24	; 0x14
    3440:	2a c0       	rjmp	.+84     	; 0x3496 <Cycle_Items_Set+0x114>
    3442:	82 ed       	ldi	r24, 0xD2	; 210
    3444:	96 e0       	ldi	r25, 0x06	; 6
    3446:	9f 93       	push	r25
    3448:	8f 93       	push	r24
    344a:	8c ed       	ldi	r24, 0xDC	; 220
    344c:	96 e0       	ldi	r25, 0x06	; 6
    344e:	9f 93       	push	r25
    3450:	8f 93       	push	r24
    3452:	32 96       	adiw	r30, 0x02	; 2
    3454:	ff 93       	push	r31
    3456:	ef 93       	push	r30
    3458:	0e 94 fe 1c 	call	0x39fc <sprintf>
    345c:	60 e8       	ldi	r22, 0x80	; 128
    345e:	10 c0       	rjmp	.+32     	; 0x3480 <Cycle_Items_Set+0xfe>
    3460:	94 60       	ori	r25, 0x04	; 4
    3462:	99 87       	std	Y+9, r25	; 0x09
    3464:	82 ed       	ldi	r24, 0xD2	; 210
    3466:	96 e0       	ldi	r25, 0x06	; 6
    3468:	9f 93       	push	r25
    346a:	8f 93       	push	r24
    346c:	8c ed       	ldi	r24, 0xDC	; 220
    346e:	96 e0       	ldi	r25, 0x06	; 6
    3470:	9f 93       	push	r25
    3472:	8f 93       	push	r24
    3474:	3b 96       	adiw	r30, 0x0b	; 11
    3476:	ff 93       	push	r31
    3478:	ef 93       	push	r30
    347a:	0e 94 fe 1c 	call	0x39fc <sprintf>
    347e:	60 e0       	ldi	r22, 0x00	; 0
    3480:	ce 01       	movw	r24, r28
    3482:	0e 94 93 19 	call	0x3326 <Cycle_Volt_Set>
    3486:	8d b7       	in	r24, 0x3d	; 61
    3488:	9e b7       	in	r25, 0x3e	; 62
    348a:	06 96       	adiw	r24, 0x06	; 6
    348c:	0f b6       	in	r0, 0x3f	; 63
    348e:	f8 94       	cli
    3490:	9e bf       	out	0x3e, r25	; 62
    3492:	0f be       	out	0x3f, r0	; 63
    3494:	8d bf       	out	0x3d, r24	; 61
    3496:	df 91       	pop	r29
    3498:	cf 91       	pop	r28
    349a:	08 95       	ret

0000349c <Battery_Limit_Set>:
//-----------------------------------------------------------------------------
// Battery Limit Set Rountine
//-----------------------------------------------------------------------------
void Battery_Limit_Set ( PSTLIMIT p, unsigned char Type )
{
    349c:	fc 01       	movw	r30, r24
    349e:	86 2f       	mov	r24, r22
	switch ( Type )
    34a0:	99 27       	eor	r25, r25
    34a2:	82 30       	cpi	r24, 0x02	; 2
    34a4:	91 05       	cpc	r25, r1
    34a6:	21 f1       	breq	.+72     	; 0x34f0 <Battery_Limit_Set+0x54>
    34a8:	83 30       	cpi	r24, 0x03	; 3
    34aa:	91 05       	cpc	r25, r1
    34ac:	2c f4       	brge	.+10     	; 0x34b8 <Battery_Limit_Set+0x1c>
    34ae:	00 97       	sbiw	r24, 0x00	; 0
    34b0:	61 f0       	breq	.+24     	; 0x34ca <Battery_Limit_Set+0x2e>
    34b2:	01 97       	sbiw	r24, 0x01	; 1
    34b4:	91 f0       	breq	.+36     	; 0x34da <Battery_Limit_Set+0x3e>
    34b6:	08 95       	ret
    34b8:	84 30       	cpi	r24, 0x04	; 4
    34ba:	91 05       	cpc	r25, r1
    34bc:	41 f1       	breq	.+80     	; 0x350e <Battery_Limit_Set+0x72>
    34be:	84 30       	cpi	r24, 0x04	; 4
    34c0:	91 05       	cpc	r25, r1
    34c2:	fc f0       	brlt	.+62     	; 0x3502 <Battery_Limit_Set+0x66>
    34c4:	05 97       	sbiw	r24, 0x05	; 5
    34c6:	59 f1       	breq	.+86     	; 0x351e <Battery_Limit_Set+0x82>
    34c8:	08 95       	ret
	{
		case LIPO:
			p->Volt_Level 		  = LIPO_VOLT_LEVEL / CELL_DIV;
    34ca:	89 eb       	ldi	r24, 0xB9	; 185
    34cc:	80 83       	st	Z, r24
			p->Charge_End_Volt 	  = LIPO_CHARGE_END_VOLT / CELL_DIV;
    34ce:	82 ed       	ldi	r24, 0xD2	; 210
    34d0:	81 83       	std	Z+1, r24	; 0x01
			p->Storge_Volt 		  = LIPO_STORGE_VOLT / CELL_DIV;
    34d2:	80 ec       	ldi	r24, 0xC0	; 192
    34d4:	82 83       	std	Z+2, r24	; 0x02
			p->Discharge_End_Volt = LIPO_DISCHARGE_END_VOLT / CELL_DIV;
    34d6:	86 e9       	ldi	r24, 0x96	; 150
    34d8:	07 c0       	rjmp	.+14     	; 0x34e8 <Battery_Limit_Set+0x4c>
			p->Charge_Max_ICA 	  = LIPO_CHARGE_MAX_ICA / CELL_DIV;
			break;

		case LIIO:
			p->Volt_Level         = LIIO_VOLT_LEVEL / CELL_DIV;
    34da:	84 eb       	ldi	r24, 0xB4	; 180
    34dc:	80 83       	st	Z, r24
			p->Charge_End_Volt    = LIIO_CHARGE_END_VOLT / CELL_DIV;
    34de:	8d ec       	ldi	r24, 0xCD	; 205
    34e0:	81 83       	std	Z+1, r24	; 0x01
			p->Storge_Volt        = LIIO_STORGE_VOLT / CELL_DIV;
    34e2:	8b eb       	ldi	r24, 0xBB	; 187
    34e4:	82 83       	std	Z+2, r24	; 0x02
			p->Discharge_End_Volt = LIIO_DISCHARGE_END_VOLT / CELL_DIV;
    34e6:	8d e7       	ldi	r24, 0x7D	; 125
    34e8:	83 83       	std	Z+3, r24	; 0x03
			p->Charge_Max_ICA 	  = LIIO_CHARGE_MAX_ICA / CELL_DIV;
    34ea:	85 e0       	ldi	r24, 0x05	; 5
    34ec:	84 83       	std	Z+4, r24	; 0x04
			break;
    34ee:	08 95       	ret

		case LIFE:
			p->Volt_Level         = LIFE_VOLT_LEVEL / CELL_DIV;
    34f0:	95 ea       	ldi	r25, 0xA5	; 165
    34f2:	90 83       	st	Z, r25
			p->Charge_End_Volt    = LIFE_CHARGE_END_VOLT / CELL_DIV;
    34f4:	84 eb       	ldi	r24, 0xB4	; 180
    34f6:	81 83       	std	Z+1, r24	; 0x01
			p->Storge_Volt        = LIFE_STORGE_VOLT / CELL_DIV;
    34f8:	92 83       	std	Z+2, r25	; 0x02
			p->Discharge_End_Volt = LIFE_DISCHARGE_END_VOLT / CELL_DIV;
    34fa:	84 e6       	ldi	r24, 0x64	; 100
    34fc:	83 83       	std	Z+3, r24	; 0x03
			p->Charge_Max_ICA 	  = LIFE_CHARGE_MAX_ICA / CELL_DIV;
    34fe:	84 e1       	ldi	r24, 0x14	; 20
    3500:	f5 cf       	rjmp	.-22     	; 0x34ec <Battery_Limit_Set+0x50>
			break;

		case NIMH:
			p->Volt_Level         = NIMH_VOLT_LEVEL / CELL_DIV;
    3502:	8c e3       	ldi	r24, 0x3C	; 60
    3504:	80 83       	st	Z, r24
			p->Charge_End_Volt    = NIMH_CHARGE_END_VOLT / CELL_DIV;
    3506:	11 82       	std	Z+1, r1	; 0x01
			p->Storge_Volt        = NIMH_STORGE_VOLT / CELL_DIV;
    3508:	12 82       	std	Z+2, r1	; 0x02
			p->Discharge_End_Volt = NIMH_DISCHARGE_END_VOLT / CELL_DIV;
    350a:	82 e3       	ldi	r24, 0x32	; 50
    350c:	05 c0       	rjmp	.+10     	; 0x3518 <Battery_Limit_Set+0x7c>
			p->Charge_Max_ICA 	  = NIMH_CHARGE_MAX_ICA / CELL_DIV;
			break;

		case NICD:
			p->Volt_Level         = NICD_VOLT_LEVEL / CELL_DIV;
    350e:	8c e3       	ldi	r24, 0x3C	; 60
    3510:	80 83       	st	Z, r24
			p->Charge_End_Volt    = NICD_CHARGE_END_VOLT / CELL_DIV;
    3512:	11 82       	std	Z+1, r1	; 0x01
			p->Storge_Volt        = NICD_STORGE_VOLT / CELL_DIV;
    3514:	12 82       	std	Z+2, r1	; 0x02
			p->Discharge_End_Volt = NICD_DISCHARGE_END_VOLT / CELL_DIV;
    3516:	8a e2       	ldi	r24, 0x2A	; 42
    3518:	83 83       	std	Z+3, r24	; 0x03
			p->Charge_Max_ICA 	  = NICD_CHARGE_MAX_ICA / CELL_DIV;
    351a:	8a e0       	ldi	r24, 0x0A	; 10
    351c:	e7 cf       	rjmp	.-50     	; 0x34ec <Battery_Limit_Set+0x50>
			break;

		case PB:
			p->Volt_Level         = PB_VOLT_LEVEL / CELL_DIV;
    351e:	84 e6       	ldi	r24, 0x64	; 100
    3520:	80 83       	st	Z, r24
			p->Charge_End_Volt    = PB_CHARGE_END_VOLT / CELL_DIV;
    3522:	8b e7       	ldi	r24, 0x7B	; 123
    3524:	81 83       	std	Z+1, r24	; 0x01
			p->Storge_Volt        = PB_STORGE_VOLT / CELL_DIV;
    3526:	12 82       	std	Z+2, r1	; 0x02
			p->Discharge_End_Volt = PB_DISCHARGE_END_VOLT / CELL_DIV;
    3528:	87 e5       	ldi	r24, 0x57	; 87
    352a:	83 83       	std	Z+3, r24	; 0x03
			p->Charge_Max_ICA 	  = PB_CHARGE_MAX_ICA / CELL_DIV;
    352c:	82 e0       	ldi	r24, 0x02	; 2
    352e:	de cf       	rjmp	.-68     	; 0x34ec <Battery_Limit_Set+0x50>

00003530 <Detect_Batt_Count>:
// Detect Battery Count Rountine
//-----------------------------------------------------------------------------
unsigned char Detect_Batt_Count ( PSTMSG p )
{
	unsigned char i = 0;
    3530:	20 e0       	ldi	r18, 0x00	; 0
    3532:	fc 01       	movw	r30, r24
    3534:	ea 58       	subi	r30, 0x8A	; 138
    3536:	ff 4f       	sbci	r31, 0xFF	; 255
    3538:	9b e0       	ldi	r25, 0x0B	; 11
	unsigned char n = 0;

	for ( ; i < SERIAL_MAX; i++ ) if ( p->Adc.Volt[CELL(i)] != 0 ) n++;
    353a:	81 91       	ld	r24, Z+
    353c:	81 11       	cpse	r24, r1
    353e:	2f 5f       	subi	r18, 0xFF	; 255
    3540:	91 50       	subi	r25, 0x01	; 1
    3542:	97 ff       	sbrs	r25, 7
    3544:	fa cf       	rjmp	.-12     	; 0x353a <Detect_Batt_Count+0xa>
	return n;
}
    3546:	82 2f       	mov	r24, r18
    3548:	99 27       	eor	r25, r25
    354a:	08 95       	ret

0000354c <Detect_Cell_Volt>:
//-----------------------------------------------------------------------------
// Detect Cell Volt Rountine
//-----------------------------------------------------------------------------
unsigned char Detect_Cell_Volt ( PSTMSG p, char * str, unsigned char Volt )
{
    354c:	cf 93       	push	r28
    354e:	fc 01       	movw	r30, r24
	unsigned char i = 0;
    3550:	c0 e0       	ldi	r28, 0x00	; 0
	unsigned char n = 0;

	n = p->Batt.Pack * p->Batt.Serial;
    3552:	92 89       	ldd	r25, Z+18	; 0x12
    3554:	83 89       	ldd	r24, Z+19	; 0x13
    3556:	98 9f       	mul	r25, r24
    3558:	90 2d       	mov	r25, r0
    355a:	11 24       	eor	r1, r1
	if ( Volt == OVER_DISCHARGE )
    355c:	41 31       	cpi	r20, 0x11	; 17
    355e:	61 f4       	brne	.+24     	; 0x3578 <Detect_Cell_Volt+0x2c>
	{
		for ( ; i < n; i++ )
    3560:	c9 17       	cp	r28, r25
    3562:	b8 f4       	brcc	.+46     	; 0x3592 <Detect_Cell_Volt+0x46>
    3564:	27 a5       	ldd	r18, Z+47	; 0x2f
    3566:	ea 58       	subi	r30, 0x8A	; 138
    3568:	ff 4f       	sbci	r31, 0xFF	; 255
			if ( p->Adc.Volt[CELL(i)] < p->Batt.Limit.Discharge_End_Volt ) break;
    356a:	81 91       	ld	r24, Z+
    356c:	82 17       	cp	r24, r18
    356e:	88 f0       	brcs	.+34     	; 0x3592 <Detect_Cell_Volt+0x46>
    3570:	cf 5f       	subi	r28, 0xFF	; 255
    3572:	c9 17       	cp	r28, r25
    3574:	d0 f3       	brcs	.-12     	; 0x356a <Detect_Cell_Volt+0x1e>
    3576:	0d c0       	rjmp	.+26     	; 0x3592 <Detect_Cell_Volt+0x46>
		if ( i == n ) return FALSE;
		sprintf ( str, "%02d", i +1 );	
	}
	else if ( Volt == OVER_CHARGE )
    3578:	42 31       	cpi	r20, 0x12	; 18
    357a:	29 f5       	brne	.+74     	; 0x35c6 <Detect_Cell_Volt+0x7a>
	{
		for ( ; i < n; i++ )
    357c:	c9 17       	cp	r28, r25
    357e:	48 f4       	brcc	.+18     	; 0x3592 <Detect_Cell_Volt+0x46>
    3580:	25 a5       	ldd	r18, Z+45	; 0x2d
    3582:	ea 58       	subi	r30, 0x8A	; 138
    3584:	ff 4f       	sbci	r31, 0xFF	; 255
			if ( p->Adc.Volt[CELL(i)] > p->Batt.Limit.Charge_End_Volt ) break;
    3586:	81 91       	ld	r24, Z+
    3588:	28 17       	cp	r18, r24
    358a:	18 f0       	brcs	.+6      	; 0x3592 <Detect_Cell_Volt+0x46>
    358c:	cf 5f       	subi	r28, 0xFF	; 255
    358e:	c9 17       	cp	r28, r25
    3590:	d0 f3       	brcs	.-12     	; 0x3586 <Detect_Cell_Volt+0x3a>
		if ( i == n ) return FALSE;
    3592:	c9 17       	cp	r28, r25
    3594:	19 f4       	brne	.+6      	; 0x359c <Detect_Cell_Volt+0x50>
    3596:	80 e0       	ldi	r24, 0x00	; 0
    3598:	90 e0       	ldi	r25, 0x00	; 0
    359a:	18 c0       	rjmp	.+48     	; 0x35cc <Detect_Cell_Volt+0x80>
		sprintf ( str, "%02d", i +1 );				
    359c:	8c 2f       	mov	r24, r28
    359e:	99 27       	eor	r25, r25
    35a0:	01 96       	adiw	r24, 0x01	; 1
    35a2:	9f 93       	push	r25
    35a4:	8f 93       	push	r24
    35a6:	80 ee       	ldi	r24, 0xE0	; 224
    35a8:	96 e0       	ldi	r25, 0x06	; 6
    35aa:	9f 93       	push	r25
    35ac:	8f 93       	push	r24
    35ae:	7f 93       	push	r23
    35b0:	6f 93       	push	r22
    35b2:	0e 94 fe 1c 	call	0x39fc <sprintf>
    35b6:	8d b7       	in	r24, 0x3d	; 61
    35b8:	9e b7       	in	r25, 0x3e	; 62
    35ba:	06 96       	adiw	r24, 0x06	; 6
    35bc:	0f b6       	in	r0, 0x3f	; 63
    35be:	f8 94       	cli
    35c0:	9e bf       	out	0x3e, r25	; 62
    35c2:	0f be       	out	0x3f, r0	; 63
    35c4:	8d bf       	out	0x3d, r24	; 61
	}
	else ;
	return ( i + 1 );
    35c6:	cf 5f       	subi	r28, 0xFF	; 255
    35c8:	8c 2f       	mov	r24, r28
    35ca:	99 27       	eor	r25, r25
    35cc:	cf 91       	pop	r28
    35ce:	08 95       	ret

000035d0 <Menu_Scroll>:
//-----------------------------------------------------------------------------
// Menu Scroll Rountine
//-----------------------------------------------------------------------------
void Menu_Scroll ( PSTMSG p, unsigned char Top_Num )
{
    35d0:	ef 92       	push	r14
    35d2:	ff 92       	push	r15
    35d4:	0f 93       	push	r16
    35d6:	1f 93       	push	r17
    35d8:	cf 93       	push	r28
    35da:	df 93       	push	r29
    35dc:	ec 01       	movw	r28, r24
    35de:	36 2f       	mov	r19, r22
	p->Menu.Update = NEED;
    35e0:	29 85       	ldd	r18, Y+9	; 0x09
    35e2:	92 2f       	mov	r25, r18
    35e4:	9f 7b       	andi	r25, 0xBF	; 191
    35e6:	99 87       	std	Y+9, r25	; 0x09
	if ( p->Key.FIFO[0] == (ON<<KEY_STOP))
    35e8:	83 e8       	ldi	r24, 0x83	; 131
    35ea:	e8 2e       	mov	r14, r24
    35ec:	f1 2c       	mov	r15, r1
    35ee:	ec 0e       	add	r14, r28
    35f0:	fd 1e       	adc	r15, r29
    35f2:	f7 01       	movw	r30, r14
    35f4:	60 81       	ld	r22, Z
    35f6:	60 38       	cpi	r22, 0x80	; 128
    35f8:	19 f4       	brne	.+6      	; 0x3600 <Menu_Scroll+0x30>
		Menu_Jump ( p, FUNCTION_LAYER - ONE_LAYER, p->Menu.Class );
    35fa:	4c 81       	ldd	r20, Y+4	; 0x04
    35fc:	61 e0       	ldi	r22, 0x01	; 1
    35fe:	3a c0       	rjmp	.+116    	; 0x3674 <Menu_Scroll+0xa4>
	else if ( p->Key.FIFO[0] == ((ON<<KEY_ENTER)|(ON<<KEY_CON)))
    3600:	61 31       	cpi	r22, 0x11	; 17
    3602:	19 f4       	brne	.+6      	; 0x360a <Menu_Scroll+0x3a>
		Menu_Jump ( p, FUNCTION_LAYER + ONE_LAYER, CUR_NUM );
    3604:	40 e0       	ldi	r20, 0x00	; 0
    3606:	63 e0       	ldi	r22, 0x03	; 3
    3608:	35 c0       	rjmp	.+106    	; 0x3674 <Menu_Scroll+0xa4>
	else if ( p->Key.FIFO[0] == (ON<<KEY_ENTER))
    360a:	61 30       	cpi	r22, 0x01	; 1
    360c:	99 f4       	brne	.+38     	; 0x3634 <Menu_Scroll+0x64>
	{
		if (( p->Batt.Mode == MEASRUEMAN )||( p->Batt.Mode = AUTO_BALANCE ))
    360e:	8b 85       	ldd	r24, Y+11	; 0x0b
    3610:	81 30       	cpi	r24, 0x01	; 1
    3612:	11 f0       	breq	.+4      	; 0x3618 <Menu_Scroll+0x48>
    3614:	82 e0       	ldi	r24, 0x02	; 2
    3616:	8b 87       	std	Y+11, r24	; 0x0b
			Menu_Jump ( p, FUNCTION_LAYER + ONE_LAYER, CUR_NUM  );
    3618:	40 e0       	ldi	r20, 0x00	; 0
    361a:	63 e0       	ldi	r22, 0x03	; 3
    361c:	ce 01       	movw	r24, r28
    361e:	0e 94 df 03 	call	0x7be <Menu_Jump>
		if ( p->Menu.Seq_End != ON ) p->Menu.Sub++;
    3622:	89 85       	ldd	r24, Y+9	; 0x09
    3624:	82 fd       	sbrc	r24, 2
    3626:	04 c0       	rjmp	.+8      	; 0x3630 <Menu_Scroll+0x60>
    3628:	8f 81       	ldd	r24, Y+7	; 0x07
    362a:	8f 5f       	subi	r24, 0xFF	; 255
    362c:	8f 83       	std	Y+7, r24	; 0x07
    362e:	28 c0       	rjmp	.+80     	; 0x3680 <Menu_Scroll+0xb0>
		else p->Menu.Sub = 0;
    3630:	1f 82       	std	Y+7, r1	; 0x07
    3632:	26 c0       	rjmp	.+76     	; 0x3680 <Menu_Scroll+0xb0>
	}
	else if ( p->Key.FIFO[0] == (ON<<KEY_INC))
    3634:	60 34       	cpi	r22, 0x40	; 64
    3636:	81 f4       	brne	.+32     	; 0x3658 <Menu_Scroll+0x88>
	{
		if ( p->Menu.Sub != 0 ) p->Menu.Seq_Inc = ON;
    3638:	8f 81       	ldd	r24, Y+7	; 0x07
    363a:	88 23       	and	r24, r24
    363c:	11 f0       	breq	.+4      	; 0x3642 <Menu_Scroll+0x72>
    363e:	98 60       	ori	r25, 0x08	; 8
    3640:	1e c0       	rjmp	.+60     	; 0x367e <Menu_Scroll+0xae>
		else if ( p->Menu.Num_Top != ON ) 
    3642:	62 2f       	mov	r22, r18
    3644:	62 70       	andi	r22, 0x02	; 2
    3646:	21 fd       	sbrc	r18, 1
    3648:	04 c0       	rjmp	.+8      	; 0x3652 <Menu_Scroll+0x82>
			 Menu_Jump ( p, CUR_LAYER, p->Menu.Num +1 );
    364a:	8e 81       	ldd	r24, Y+6	; 0x06
    364c:	8f 5f       	subi	r24, 0xFF	; 255
    364e:	48 2f       	mov	r20, r24
    3650:	11 c0       	rjmp	.+34     	; 0x3674 <Menu_Scroll+0xa4>
		else Menu_Jump ( p, FUNCTION_LAYER, BOTTOM_NUM );
    3652:	41 e0       	ldi	r20, 0x01	; 1
    3654:	62 e0       	ldi	r22, 0x02	; 2
    3656:	0e c0       	rjmp	.+28     	; 0x3674 <Menu_Scroll+0xa4>
	}
	else if ( p->Key.FIFO[0] == (ON<<KEY_DEC))
    3658:	62 30       	cpi	r22, 0x02	; 2
    365a:	81 f4       	brne	.+32     	; 0x367c <Menu_Scroll+0xac>
	{
		if ( p->Menu.Sub != 0 ) p->Menu.Seq_Dec = ON;
    365c:	8f 81       	ldd	r24, Y+7	; 0x07
    365e:	88 23       	and	r24, r24
    3660:	11 f0       	breq	.+4      	; 0x3666 <Menu_Scroll+0x96>
    3662:	90 61       	ori	r25, 0x10	; 16
    3664:	0c c0       	rjmp	.+24     	; 0x367e <Menu_Scroll+0xae>
		else if ( p->Menu.Num != BOTTOM_NUM ) 
    3666:	4e 81       	ldd	r20, Y+6	; 0x06
    3668:	41 30       	cpi	r20, 0x01	; 1
    366a:	19 f0       	breq	.+6      	; 0x3672 <Menu_Scroll+0xa2>
			 Menu_Jump ( p, CUR_LAYER, p->Menu.Num -1 );
    366c:	41 50       	subi	r20, 0x01	; 1
    366e:	68 2f       	mov	r22, r24
    3670:	01 c0       	rjmp	.+2      	; 0x3674 <Menu_Scroll+0xa4>
		else Menu_Jump ( p, FUNCTION_LAYER, Top_Num );
    3672:	43 2f       	mov	r20, r19
    3674:	ce 01       	movw	r24, r28
    3676:	0e 94 df 03 	call	0x7be <Menu_Jump>
    367a:	02 c0       	rjmp	.+4      	; 0x3680 <Menu_Scroll+0xb0>
	}
	else p->Menu.Update = UNNEED;
    367c:	90 64       	ori	r25, 0x40	; 64
    367e:	99 87       	std	Y+9, r25	; 0x09
	p->Key.n = FIFO_Pop ((unsigned char *) p->Key.FIFO, p->Key.n );
    3680:	8e 01       	movw	r16, r28
    3682:	03 57       	subi	r16, 0x73	; 115
    3684:	1f 4f       	sbci	r17, 0xFF	; 255
    3686:	f8 01       	movw	r30, r16
    3688:	60 81       	ld	r22, Z
    368a:	c7 01       	movw	r24, r14
    368c:	0e 94 42 06 	call	0xc84 <FIFO_Pop>
    3690:	f8 01       	movw	r30, r16
    3692:	80 83       	st	Z, r24
    3694:	df 91       	pop	r29
    3696:	cf 91       	pop	r28
    3698:	1f 91       	pop	r17
    369a:	0f 91       	pop	r16
    369c:	ff 90       	pop	r15
    369e:	ef 90       	pop	r14
    36a0:	08 95       	ret

000036a2 <PMU_Out>:
//-----------------------------------------------------------------------------
// PMU Out Rountine
//-----------------------------------------------------------------------------
void PMU_Out ( PSTMSG p )
{
    36a2:	8f 92       	push	r8
    36a4:	9f 92       	push	r9
    36a6:	af 92       	push	r10
    36a8:	bf 92       	push	r11
    36aa:	cf 92       	push	r12
    36ac:	df 92       	push	r13
    36ae:	ef 92       	push	r14
    36b0:	ff 92       	push	r15
    36b2:	0f 93       	push	r16
    36b4:	1f 93       	push	r17
    36b6:	cf 93       	push	r28
    36b8:	df 93       	push	r29
    36ba:	cd b7       	in	r28, 0x3d	; 61
    36bc:	de b7       	in	r29, 0x3e	; 62
    36be:	a2 97       	sbiw	r28, 0x22	; 34
    36c0:	0f b6       	in	r0, 0x3f	; 63
    36c2:	f8 94       	cli
    36c4:	de bf       	out	0x3e, r29	; 62
    36c6:	0f be       	out	0x3f, r0	; 63
    36c8:	cd bf       	out	0x3d, r28	; 61
    36ca:	5c 01       	movw	r10, r24
	char Line[COLUMN_MAX +1] = "";
    36cc:	80 91 e5 06 	lds	r24, 0x06E5
    36d0:	89 83       	std	Y+1, r24	; 0x01
    36d2:	90 e1       	ldi	r25, 0x10	; 16
    36d4:	fe 01       	movw	r30, r28
    36d6:	32 96       	adiw	r30, 0x02	; 2
    36d8:	29 2f       	mov	r18, r25
    36da:	11 92       	st	Z+, r1
    36dc:	2a 95       	dec	r18
    36de:	e9 f7       	brne	.-6      	; 0x36da <PMU_Out+0x38>
	char str [COLUMN_MAX +1] = "";
    36e0:	8a 8b       	std	Y+18, r24	; 0x12
    36e2:	fe 01       	movw	r30, r28
    36e4:	73 96       	adiw	r30, 0x13	; 19
    36e6:	11 92       	st	Z+, r1
    36e8:	9a 95       	dec	r25
    36ea:	e9 f7       	brne	.-6      	; 0x36e6 <PMU_Out+0x44>

	switch ( p->Menu.Layer )
    36ec:	f5 01       	movw	r30, r10
    36ee:	85 81       	ldd	r24, Z+5	; 0x05
    36f0:	99 27       	eor	r25, r25
    36f2:	81 30       	cpi	r24, 0x01	; 1
    36f4:	91 05       	cpc	r25, r1
    36f6:	21 f0       	breq	.+8      	; 0x3700 <PMU_Out+0x5e>
    36f8:	02 97       	sbiw	r24, 0x02	; 2
    36fa:	09 f4       	brne	.+2      	; 0x36fe <PMU_Out+0x5c>
    36fc:	7c c0       	rjmp	.+248    	; 0x37f6 <PMU_Out+0x154>
    36fe:	64 c1       	rjmp	.+712    	; 0x39c8 <PMU_Out+0x326>
	{
		case BOTTOM_LAYER:
			if ( p->Menu.Key == OPEN )
    3700:	f5 01       	movw	r30, r10
    3702:	81 85       	ldd	r24, Z+9	; 0x09
    3704:	87 ff       	sbrs	r24, 7
    3706:	0b c0       	rjmp	.+22     	; 0x371e <PMU_Out+0x7c>
			{
				Menu_Scroll ( p, 1 );
    3708:	61 e0       	ldi	r22, 0x01	; 1
    370a:	c5 01       	movw	r24, r10
    370c:	0e 94 e8 1a 	call	0x35d0 <Menu_Scroll>
				if ( p->Menu.Update == UNNEED ) { p->Menu.Update = NEED;  break; }
    3710:	f5 01       	movw	r30, r10
    3712:	81 85       	ldd	r24, Z+9	; 0x09
    3714:	86 ff       	sbrs	r24, 6
    3716:	03 c0       	rjmp	.+6      	; 0x371e <PMU_Out+0x7c>
    3718:	8f 7b       	andi	r24, 0xBF	; 191
    371a:	81 87       	std	Z+9, r24	; 0x09
    371c:	55 c1       	rjmp	.+682    	; 0x39c8 <PMU_Out+0x326>
			} 
			else ;
			p->Key.n = FIFO_Clear ((unsigned char *) p->Key.FIFO, p->Key.n );
    371e:	85 01       	movw	r16, r10
    3720:	03 57       	subi	r16, 0x73	; 115
    3722:	1f 4f       	sbci	r17, 0xFF	; 255
    3724:	d8 01       	movw	r26, r16
    3726:	6c 91       	ld	r22, X
    3728:	c5 01       	movw	r24, r10
    372a:	8d 57       	subi	r24, 0x7D	; 125
    372c:	9f 4f       	sbci	r25, 0xFF	; 255
    372e:	0e 94 2e 06 	call	0xc5c <FIFO_Clear>
    3732:	f8 01       	movw	r30, r16
    3734:	80 83       	st	Z, r24
			p->Menu.Update = UNNEED;
    3736:	f5 01       	movw	r30, r10
    3738:	81 85       	ldd	r24, Z+9	; 0x09
			p->Menu.Key	= OPEN;
    373a:	80 6c       	ori	r24, 0xC0	; 192
    373c:	81 87       	std	Z+9, r24	; 0x09

			sprintf ( Line, "%s", "DC Power" );
    373e:	7e 01       	movw	r14, r28
    3740:	08 94       	sec
    3742:	e1 1c       	adc	r14, r1
    3744:	f1 1c       	adc	r15, r1
    3746:	89 e0       	ldi	r24, 0x09	; 9
    3748:	e6 ef       	ldi	r30, 0xF6	; 246
    374a:	f6 e0       	ldi	r31, 0x06	; 6
    374c:	d7 01       	movw	r26, r14
    374e:	01 90       	ld	r0, Z+
    3750:	0d 92       	st	X+, r0
    3752:	8a 95       	dec	r24
    3754:	e1 f7       	brne	.-8      	; 0x374e <PMU_Out+0xac>
			sprintf ( str, "%dmin", p->Pmu.Out.Time );
    3756:	85 01       	movw	r16, r10
    3758:	07 5a       	subi	r16, 0xA7	; 167
    375a:	1f 4f       	sbci	r17, 0xFF	; 255
    375c:	f8 01       	movw	r30, r16
    375e:	80 81       	ld	r24, Z
    3760:	91 81       	ldd	r25, Z+1	; 0x01
    3762:	9f 93       	push	r25
    3764:	8f 93       	push	r24
    3766:	8f ef       	ldi	r24, 0xFF	; 255
    3768:	96 e0       	ldi	r25, 0x06	; 6
    376a:	9f 93       	push	r25
    376c:	8f 93       	push	r24
    376e:	52 e1       	ldi	r21, 0x12	; 18
    3770:	c5 2e       	mov	r12, r21
    3772:	d1 2c       	mov	r13, r1
    3774:	cc 0e       	add	r12, r28
    3776:	dd 1e       	adc	r13, r29
    3778:	df 92       	push	r13
    377a:	cf 92       	push	r12
    377c:	0e 94 fe 1c 	call	0x39fc <sprintf>
			sprintf ( str +8, "%8dmin", p->Pmu.Out.Time );
    3780:	d8 01       	movw	r26, r16
    3782:	8d 91       	ld	r24, X+
    3784:	9c 91       	ld	r25, X
    3786:	9f 93       	push	r25
    3788:	8f 93       	push	r24
    378a:	85 e0       	ldi	r24, 0x05	; 5
    378c:	97 e0       	ldi	r25, 0x07	; 7
    378e:	9f 93       	push	r25
    3790:	8f 93       	push	r24
    3792:	ce 01       	movw	r24, r28
    3794:	4a 96       	adiw	r24, 0x1a	; 26
    3796:	9f 93       	push	r25
    3798:	8f 93       	push	r24
    379a:	0e 94 fe 1c 	call	0x39fc <sprintf>
			LCD_Update ( COL1, ROW1, Line );
    379e:	a7 01       	movw	r20, r14
    37a0:	60 e0       	ldi	r22, 0x00	; 0
    37a2:	86 2f       	mov	r24, r22
    37a4:	0e 94 4a 03 	call	0x694 <LCD_Update>
			sprintf ( Line, "%s", Get_Item ( p, str, I_MA ));
    37a8:	42 e0       	ldi	r20, 0x02	; 2
    37aa:	b6 01       	movw	r22, r12
    37ac:	c5 01       	movw	r24, r10
    37ae:	0e 94 84 13 	call	0x2708 <Get_Item>
    37b2:	bc 01       	movw	r22, r24
    37b4:	c7 01       	movw	r24, r14
    37b6:	0e 94 f7 1c 	call	0x39ee <strcpy>
			sprintf ( Line +4, "%12d", p->Batt.Volt );
    37ba:	f5 01       	movw	r30, r10
    37bc:	80 89       	ldd	r24, Z+16	; 0x10
    37be:	91 89       	ldd	r25, Z+17	; 0x11
    37c0:	9f 93       	push	r25
    37c2:	8f 93       	push	r24
    37c4:	8c e0       	ldi	r24, 0x0C	; 12
    37c6:	97 e0       	ldi	r25, 0x07	; 7
    37c8:	9f 93       	push	r25
    37ca:	8f 93       	push	r24
    37cc:	ce 01       	movw	r24, r28
    37ce:	05 96       	adiw	r24, 0x05	; 5
    37d0:	9f 93       	push	r25
    37d2:	8f 93       	push	r24
    37d4:	0e 94 fe 1c 	call	0x39fc <sprintf>
			LCD_Update ( COL1, ROW2, Line );
    37d8:	a7 01       	movw	r20, r14
    37da:	61 e0       	ldi	r22, 0x01	; 1
    37dc:	80 e0       	ldi	r24, 0x00	; 0
    37de:	0e 94 4a 03 	call	0x694 <LCD_Update>
			break;
    37e2:	2d b7       	in	r18, 0x3d	; 61
    37e4:	3e b7       	in	r19, 0x3e	; 62
    37e6:	2e 5e       	subi	r18, 0xEE	; 238
    37e8:	3f 4f       	sbci	r19, 0xFF	; 255
    37ea:	0f b6       	in	r0, 0x3f	; 63
    37ec:	f8 94       	cli
    37ee:	3e bf       	out	0x3e, r19	; 62
    37f0:	0f be       	out	0x3f, r0	; 63
    37f2:	2d bf       	out	0x3d, r18	; 61
    37f4:	e9 c0       	rjmp	.+466    	; 0x39c8 <PMU_Out+0x326>

		case FUNCTION_LAYER:
			if ( p->Menu.Key == OPEN )
    37f6:	f5 01       	movw	r30, r10
    37f8:	81 85       	ldd	r24, Z+9	; 0x09
    37fa:	87 ff       	sbrs	r24, 7
    37fc:	22 c0       	rjmp	.+68     	; 0x3842 <PMU_Out+0x1a0>
			{
				if ( p->Key.FIFO[0] & (ON<<KEY_STOP))
    37fe:	43 e8       	ldi	r20, 0x83	; 131
    3800:	e4 2e       	mov	r14, r20
    3802:	f1 2c       	mov	r15, r1
    3804:	ea 0c       	add	r14, r10
    3806:	fb 1c       	adc	r15, r11
    3808:	d7 01       	movw	r26, r14
    380a:	8c 91       	ld	r24, X
    380c:	87 ff       	sbrs	r24, 7
    380e:	0f c0       	rjmp	.+30     	; 0x382e <PMU_Out+0x18c>
				{
					if 		( p->Pmu.State == NORM_RUN ) p->Pmu.State = FORCE_STOP;
    3810:	e9 5a       	subi	r30, 0xA9	; 169
    3812:	ff 4f       	sbci	r31, 0xFF	; 255
    3814:	80 81       	ld	r24, Z
    3816:	82 30       	cpi	r24, 0x02	; 2
    3818:	19 f4       	brne	.+6      	; 0x3820 <PMU_Out+0x17e>
    381a:	88 e0       	ldi	r24, 0x08	; 8
    381c:	80 83       	st	Z, r24
    381e:	07 c0       	rjmp	.+14     	; 0x382e <PMU_Out+0x18c>
					else if ( p->Pmu.State == NORM_STOP ) 
    3820:	86 30       	cpi	r24, 0x06	; 6
    3822:	29 f4       	brne	.+10     	; 0x382e <PMU_Out+0x18c>
						Menu_Jump ( p, FUNCTION_LAYER - ONE_LAYER, 1 );
    3824:	41 e0       	ldi	r20, 0x01	; 1
    3826:	64 2f       	mov	r22, r20
    3828:	c5 01       	movw	r24, r10
    382a:	0e 94 df 03 	call	0x7be <Menu_Jump>
					else ;
				}
				p->Key.n = FIFO_Pop ((unsigned char *) p->Key.FIFO, p->Key.n );
    382e:	85 01       	movw	r16, r10
    3830:	03 57       	subi	r16, 0x73	; 115
    3832:	1f 4f       	sbci	r17, 0xFF	; 255
    3834:	f8 01       	movw	r30, r16
    3836:	60 81       	ld	r22, Z
    3838:	c7 01       	movw	r24, r14
    383a:	0e 94 42 06 	call	0xc84 <FIFO_Pop>
    383e:	d8 01       	movw	r26, r16
    3840:	8c 93       	st	X, r24
			} 
			if ( p->Menu.Toggle == OFF ) 	sprintf ( Line, "%s", "DCPS" );	else ;
    3842:	f5 01       	movw	r30, r10
    3844:	81 85       	ldd	r24, Z+9	; 0x09
    3846:	85 fd       	sbrc	r24, 5
    3848:	09 c0       	rjmp	.+18     	; 0x385c <PMU_Out+0x1ba>
    384a:	85 e0       	ldi	r24, 0x05	; 5
    384c:	a1 e1       	ldi	r26, 0x11	; 17
    384e:	b7 e0       	ldi	r27, 0x07	; 7
    3850:	fe 01       	movw	r30, r28
    3852:	31 96       	adiw	r30, 0x01	; 1
    3854:	0d 90       	ld	r0, X+
    3856:	01 92       	st	Z+, r0
    3858:	8a 95       	dec	r24
    385a:	e1 f7       	brne	.-8      	; 0x3854 <PMU_Out+0x1b2>
			if ( p->Pmu.Out.Time == ( p->Pmu.Time /60 ))
    385c:	32 e5       	ldi	r19, 0x52	; 82
    385e:	83 2e       	mov	r8, r19
    3860:	91 2c       	mov	r9, r1
    3862:	8a 0c       	add	r8, r10
    3864:	9b 1c       	adc	r9, r11
    3866:	d4 01       	movw	r26, r8
    3868:	8d 91       	ld	r24, X+
    386a:	9c 91       	ld	r25, X
    386c:	6c e3       	ldi	r22, 0x3C	; 60
    386e:	70 e0       	ldi	r23, 0x00	; 0
    3870:	0e 94 43 20 	call	0x4086 <__udivmodhi4>
    3874:	e9 e5       	ldi	r30, 0x59	; 89
    3876:	f0 e0       	ldi	r31, 0x00	; 0
    3878:	ae 0e       	add	r10, r30
    387a:	bf 1e       	adc	r11, r31
    387c:	d5 01       	movw	r26, r10
    387e:	8d 91       	ld	r24, X+
    3880:	9c 91       	ld	r25, X
    3882:	e7 ea       	ldi	r30, 0xA7	; 167
    3884:	ff ef       	ldi	r31, 0xFF	; 255
    3886:	ae 0e       	add	r10, r30
    3888:	bf 1e       	adc	r11, r31
    388a:	86 17       	cp	r24, r22
    388c:	97 07       	cpc	r25, r23
    388e:	c9 f4       	brne	.+50     	; 0x38c2 <PMU_Out+0x220>
			{
				p->Pmu.State = FORCE_STOP;
    3890:	27 e5       	ldi	r18, 0x57	; 87
    3892:	30 e0       	ldi	r19, 0x00	; 0
    3894:	a2 0e       	add	r10, r18
    3896:	b3 1e       	adc	r11, r19
    3898:	88 e0       	ldi	r24, 0x08	; 8
    389a:	d5 01       	movw	r26, r10
    389c:	8c 93       	st	X, r24
    389e:	e9 ea       	ldi	r30, 0xA9	; 169
    38a0:	ff ef       	ldi	r31, 0xFF	; 255
    38a2:	ae 0e       	add	r10, r30
    38a4:	bf 1e       	adc	r11, r31
				if (( p->Menu.Toggle == ON ) && ( p->Pmu.State == NORM_STOP )) 
											sprintf ( Line, "%s", "DONE" );
				p->Menu.Toggle = ~p->Menu.Toggle;
    38a6:	f5 01       	movw	r30, r10
    38a8:	91 85       	ldd	r25, Z+9	; 0x09
    38aa:	89 2f       	mov	r24, r25
    38ac:	82 95       	swap	r24
    38ae:	86 95       	lsr	r24
    38b0:	87 70       	andi	r24, 0x07	; 7
    38b2:	80 95       	com	r24
    38b4:	81 70       	andi	r24, 0x01	; 1
    38b6:	82 95       	swap	r24
    38b8:	88 0f       	add	r24, r24
    38ba:	80 7e       	andi	r24, 0xE0	; 224
    38bc:	9f 7d       	andi	r25, 0xDF	; 223
    38be:	98 2b       	or	r25, r24
    38c0:	91 87       	std	Z+9, r25	; 0x09
			}
			sprintf ( Line + 4,  "%s", Get_Item ( p, str, CUR_IMA ));
    38c2:	8e 01       	movw	r16, r28
    38c4:	0e 5e       	subi	r16, 0xEE	; 238
    38c6:	1f 4f       	sbci	r17, 0xFF	; 255
    38c8:	41 e0       	ldi	r20, 0x01	; 1
    38ca:	b8 01       	movw	r22, r16
    38cc:	c5 01       	movw	r24, r10
    38ce:	0e 94 84 13 	call	0x2708 <Get_Item>
    38d2:	25 e0       	ldi	r18, 0x05	; 5
    38d4:	c2 2e       	mov	r12, r18
    38d6:	d1 2c       	mov	r13, r1
    38d8:	cc 0e       	add	r12, r28
    38da:	dd 1e       	adc	r13, r29
    38dc:	bc 01       	movw	r22, r24
    38de:	c6 01       	movw	r24, r12
    38e0:	0e 94 f7 1c 	call	0x39ee <strcpy>
		  	sprintf ( Line + 9, " %s", Get_Item ( p, str, VOLT ));
    38e4:	45 e0       	ldi	r20, 0x05	; 5
    38e6:	b8 01       	movw	r22, r16
    38e8:	c5 01       	movw	r24, r10
    38ea:	0e 94 84 13 	call	0x2708 <Get_Item>
    38ee:	9f 93       	push	r25
    38f0:	8f 93       	push	r24
    38f2:	86 e1       	ldi	r24, 0x16	; 22
    38f4:	97 e0       	ldi	r25, 0x07	; 7
    38f6:	9f 93       	push	r25
    38f8:	8f 93       	push	r24
    38fa:	ce 01       	movw	r24, r28
    38fc:	0a 96       	adiw	r24, 0x0a	; 10
    38fe:	9f 93       	push	r25
    3900:	8f 93       	push	r24
    3902:	0e 94 fe 1c 	call	0x39fc <sprintf>
			LCD_Update ( COL1, ROW1, Line );
    3906:	ae 01       	movw	r20, r28
    3908:	4f 5f       	subi	r20, 0xFF	; 255
    390a:	5f 4f       	sbci	r21, 0xFF	; 255
    390c:	60 e0       	ldi	r22, 0x00	; 0
    390e:	86 2f       	mov	r24, r22
    3910:	0e 94 4a 03 	call	0x694 <LCD_Update>

			sprintf ( Line, "%s", "OUT " );
    3914:	7e 01       	movw	r14, r28
    3916:	08 94       	sec
    3918:	e1 1c       	adc	r14, r1
    391a:	f1 1c       	adc	r15, r1
    391c:	85 e0       	ldi	r24, 0x05	; 5
    391e:	ea e1       	ldi	r30, 0x1A	; 26
    3920:	f7 e0       	ldi	r31, 0x07	; 7
    3922:	d7 01       	movw	r26, r14
    3924:	01 90       	ld	r0, Z+
    3926:	0d 92       	st	X+, r0
    3928:	8a 95       	dec	r24
    392a:	e1 f7       	brne	.-8      	; 0x3924 <PMU_Out+0x282>
			sprintf ( Line + 4, "%s", Get_Item ( p, str, TIME ));
    392c:	4d e0       	ldi	r20, 0x0D	; 13
    392e:	b8 01       	movw	r22, r16
    3930:	c5 01       	movw	r24, r10
    3932:	0e 94 84 13 	call	0x2708 <Get_Item>
    3936:	bc 01       	movw	r22, r24
    3938:	c6 01       	movw	r24, r12
    393a:	0e 94 f7 1c 	call	0x39ee <strcpy>
			sprintf ( Line + 10, "%6dW", p->Pmu.Out.Volt * p->Pmu.Out.IA /100 );
    393e:	f5 01       	movw	r30, r10
    3940:	e3 5a       	subi	r30, 0xA3	; 163
    3942:	ff 4f       	sbci	r31, 0xFF	; 255
    3944:	2b e5       	ldi	r18, 0x5B	; 91
    3946:	30 e0       	ldi	r19, 0x00	; 0
    3948:	a2 0e       	add	r10, r18
    394a:	b3 1e       	adc	r11, r19
    394c:	20 81       	ld	r18, Z
    394e:	31 81       	ldd	r19, Z+1	; 0x01
    3950:	d5 01       	movw	r26, r10
    3952:	8d 91       	ld	r24, X+
    3954:	9c 91       	ld	r25, X
    3956:	e5 ea       	ldi	r30, 0xA5	; 165
    3958:	ff ef       	ldi	r31, 0xFF	; 255
    395a:	ae 0e       	add	r10, r30
    395c:	bf 1e       	adc	r11, r31
    395e:	28 9f       	mul	r18, r24
    3960:	a0 01       	movw	r20, r0
    3962:	29 9f       	mul	r18, r25
    3964:	50 0d       	add	r21, r0
    3966:	38 9f       	mul	r19, r24
    3968:	50 0d       	add	r21, r0
    396a:	11 24       	eor	r1, r1
    396c:	ca 01       	movw	r24, r20
    396e:	64 e6       	ldi	r22, 0x64	; 100
    3970:	70 e0       	ldi	r23, 0x00	; 0
    3972:	0e 94 43 20 	call	0x4086 <__udivmodhi4>
    3976:	7f 93       	push	r23
    3978:	6f 93       	push	r22
    397a:	8f e1       	ldi	r24, 0x1F	; 31
    397c:	97 e0       	ldi	r25, 0x07	; 7
    397e:	9f 93       	push	r25
    3980:	8f 93       	push	r24
    3982:	ce 01       	movw	r24, r28
    3984:	0b 96       	adiw	r24, 0x0b	; 11
    3986:	9f 93       	push	r25
    3988:	8f 93       	push	r24
    398a:	0e 94 fe 1c 	call	0x39fc <sprintf>
			LCD_Update ( COL1, ROW2, Line );
    398e:	a7 01       	movw	r20, r14
    3990:	61 e0       	ldi	r22, 0x01	; 1
    3992:	80 e0       	ldi	r24, 0x00	; 0
    3994:	0e 94 4a 03 	call	0x694 <LCD_Update>
			if ( p->Pmu.Time++ == 0 ) p->Pmu.State = READY_START;
    3998:	d4 01       	movw	r26, r8
    399a:	8d 91       	ld	r24, X+
    399c:	9c 91       	ld	r25, X
    399e:	11 97       	sbiw	r26, 0x01	; 1
    39a0:	01 96       	adiw	r24, 0x01	; 1
    39a2:	8d 93       	st	X+, r24
    39a4:	9c 93       	st	X, r25
    39a6:	ed b7       	in	r30, 0x3d	; 61
    39a8:	fe b7       	in	r31, 0x3e	; 62
    39aa:	3c 96       	adiw	r30, 0x0c	; 12
    39ac:	0f b6       	in	r0, 0x3f	; 63
    39ae:	f8 94       	cli
    39b0:	fe bf       	out	0x3e, r31	; 62
    39b2:	0f be       	out	0x3f, r0	; 63
    39b4:	ed bf       	out	0x3d, r30	; 61
    39b6:	01 97       	sbiw	r24, 0x01	; 1
    39b8:	39 f4       	brne	.+14     	; 0x39c8 <PMU_Out+0x326>
    39ba:	27 e5       	ldi	r18, 0x57	; 87
    39bc:	30 e0       	ldi	r19, 0x00	; 0
    39be:	a2 0e       	add	r10, r18
    39c0:	b3 1e       	adc	r11, r19
    39c2:	81 e0       	ldi	r24, 0x01	; 1
    39c4:	d5 01       	movw	r26, r10
    39c6:	8c 93       	st	X, r24
    39c8:	a2 96       	adiw	r28, 0x22	; 34
    39ca:	0f b6       	in	r0, 0x3f	; 63
    39cc:	f8 94       	cli
    39ce:	de bf       	out	0x3e, r29	; 62
    39d0:	0f be       	out	0x3f, r0	; 63
    39d2:	cd bf       	out	0x3d, r28	; 61
    39d4:	df 91       	pop	r29
    39d6:	cf 91       	pop	r28
    39d8:	1f 91       	pop	r17
    39da:	0f 91       	pop	r16
    39dc:	ff 90       	pop	r15
    39de:	ef 90       	pop	r14
    39e0:	df 90       	pop	r13
    39e2:	cf 90       	pop	r12
    39e4:	bf 90       	pop	r11
    39e6:	af 90       	pop	r10
    39e8:	9f 90       	pop	r9
    39ea:	8f 90       	pop	r8
    39ec:	08 95       	ret

000039ee <strcpy>:
    39ee:	fb 01       	movw	r30, r22
    39f0:	dc 01       	movw	r26, r24
    39f2:	01 90       	ld	r0, Z+
    39f4:	0d 92       	st	X+, r0
    39f6:	00 20       	and	r0, r0
    39f8:	e1 f7       	brne	.-8      	; 0x39f2 <strcpy+0x4>
    39fa:	08 95       	ret

000039fc <sprintf>:
    39fc:	0f 93       	push	r16
    39fe:	1f 93       	push	r17
    3a00:	cf 93       	push	r28
    3a02:	df 93       	push	r29
    3a04:	cd b7       	in	r28, 0x3d	; 61
    3a06:	de b7       	in	r29, 0x3e	; 62
    3a08:	2e 97       	sbiw	r28, 0x0e	; 14
    3a0a:	0f b6       	in	r0, 0x3f	; 63
    3a0c:	f8 94       	cli
    3a0e:	de bf       	out	0x3e, r29	; 62
    3a10:	0f be       	out	0x3f, r0	; 63
    3a12:	cd bf       	out	0x3d, r28	; 61
    3a14:	0d 89       	ldd	r16, Y+21	; 0x15
    3a16:	1e 89       	ldd	r17, Y+22	; 0x16
    3a18:	2f 89       	ldd	r18, Y+23	; 0x17
    3a1a:	38 8d       	ldd	r19, Y+24	; 0x18
    3a1c:	86 e0       	ldi	r24, 0x06	; 6
    3a1e:	8c 83       	std	Y+4, r24	; 0x04
    3a20:	1a 83       	std	Y+2, r17	; 0x02
    3a22:	09 83       	std	Y+1, r16	; 0x01
    3a24:	8f ef       	ldi	r24, 0xFF	; 255
    3a26:	9f e7       	ldi	r25, 0x7F	; 127
    3a28:	9e 83       	std	Y+6, r25	; 0x06
    3a2a:	8d 83       	std	Y+5, r24	; 0x05
    3a2c:	ae 01       	movw	r20, r28
    3a2e:	47 5e       	subi	r20, 0xE7	; 231
    3a30:	5f 4f       	sbci	r21, 0xFF	; 255
    3a32:	b9 01       	movw	r22, r18
    3a34:	ce 01       	movw	r24, r28
    3a36:	01 96       	adiw	r24, 0x01	; 1
    3a38:	0e 94 2e 1d 	call	0x3a5c <vfprintf>
    3a3c:	ef 81       	ldd	r30, Y+7	; 0x07
    3a3e:	f8 85       	ldd	r31, Y+8	; 0x08
    3a40:	e0 0f       	add	r30, r16
    3a42:	f1 1f       	adc	r31, r17
    3a44:	10 82       	st	Z, r1
    3a46:	2e 96       	adiw	r28, 0x0e	; 14
    3a48:	0f b6       	in	r0, 0x3f	; 63
    3a4a:	f8 94       	cli
    3a4c:	de bf       	out	0x3e, r29	; 62
    3a4e:	0f be       	out	0x3f, r0	; 63
    3a50:	cd bf       	out	0x3d, r28	; 61
    3a52:	df 91       	pop	r29
    3a54:	cf 91       	pop	r28
    3a56:	1f 91       	pop	r17
    3a58:	0f 91       	pop	r16
    3a5a:	08 95       	ret

00003a5c <vfprintf>:
    3a5c:	2f 92       	push	r2
    3a5e:	3f 92       	push	r3
    3a60:	4f 92       	push	r4
    3a62:	5f 92       	push	r5
    3a64:	6f 92       	push	r6
    3a66:	7f 92       	push	r7
    3a68:	8f 92       	push	r8
    3a6a:	9f 92       	push	r9
    3a6c:	af 92       	push	r10
    3a6e:	bf 92       	push	r11
    3a70:	cf 92       	push	r12
    3a72:	df 92       	push	r13
    3a74:	ef 92       	push	r14
    3a76:	ff 92       	push	r15
    3a78:	0f 93       	push	r16
    3a7a:	1f 93       	push	r17
    3a7c:	cf 93       	push	r28
    3a7e:	df 93       	push	r29
    3a80:	cd b7       	in	r28, 0x3d	; 61
    3a82:	de b7       	in	r29, 0x3e	; 62
    3a84:	62 97       	sbiw	r28, 0x12	; 18
    3a86:	0f b6       	in	r0, 0x3f	; 63
    3a88:	f8 94       	cli
    3a8a:	de bf       	out	0x3e, r29	; 62
    3a8c:	0f be       	out	0x3f, r0	; 63
    3a8e:	cd bf       	out	0x3d, r28	; 61
    3a90:	ee 24       	eor	r14, r14
    3a92:	ff 24       	eor	r15, r15
    3a94:	87 01       	movw	r16, r14
    3a96:	1c 01       	movw	r2, r24
    3a98:	7e 87       	std	Y+14, r23	; 0x0e
    3a9a:	6d 87       	std	Y+13, r22	; 0x0d
    3a9c:	2a 01       	movw	r4, r20
    3a9e:	cc 24       	eor	r12, r12
    3aa0:	dd 24       	eor	r13, r13
    3aa2:	fc 01       	movw	r30, r24
    3aa4:	d7 82       	std	Z+7, r13	; 0x07
    3aa6:	c6 82       	std	Z+6, r12	; 0x06
    3aa8:	83 81       	ldd	r24, Z+3	; 0x03
    3aaa:	81 fd       	sbrc	r24, 1
    3aac:	68 c2       	rjmp	.+1232   	; 0x3f7e <vfprintf+0x522>
    3aae:	8f ef       	ldi	r24, 0xFF	; 255
    3ab0:	9f ef       	ldi	r25, 0xFF	; 255
    3ab2:	78 c2       	rjmp	.+1264   	; 0x3fa4 <vfprintf+0x548>
    3ab4:	8d 85       	ldd	r24, Y+13	; 0x0d
    3ab6:	9e 85       	ldd	r25, Y+14	; 0x0e
    3ab8:	01 96       	adiw	r24, 0x01	; 1
    3aba:	9e 87       	std	Y+14, r25	; 0x0e
    3abc:	8d 87       	std	Y+13, r24	; 0x0d
    3abe:	c0 fe       	sbrs	r12, 0
    3ac0:	4b c2       	rjmp	.+1174   	; 0x3f58 <vfprintf+0x4fc>
    3ac2:	8f 85       	ldd	r24, Y+15	; 0x0f
    3ac4:	80 53       	subi	r24, 0x30	; 48
    3ac6:	8a 30       	cpi	r24, 0x0A	; 10
    3ac8:	d0 f4       	brcc	.+52     	; 0x3afe <vfprintf+0xa2>
    3aca:	9f 85       	ldd	r25, Y+15	; 0x0f
    3acc:	90 33       	cpi	r25, 0x30	; 48
    3ace:	39 f4       	brne	.+14     	; 0x3ade <vfprintf+0x82>
    3ad0:	66 20       	and	r6, r6
    3ad2:	29 f4       	brne	.+10     	; 0x3ade <vfprintf+0x82>
    3ad4:	c3 fc       	sbrc	r12, 3
    3ad6:	03 c0       	rjmp	.+6      	; 0x3ade <vfprintf+0x82>
    3ad8:	e0 e0       	ldi	r30, 0x00	; 0
    3ada:	f1 e0       	ldi	r31, 0x01	; 1
    3adc:	8d c0       	rjmp	.+282    	; 0x3bf8 <vfprintf+0x19c>
    3ade:	8a e0       	ldi	r24, 0x0A	; 10
    3ae0:	68 9e       	mul	r6, r24
    3ae2:	60 2c       	mov	r6, r0
    3ae4:	11 24       	eor	r1, r1
    3ae6:	ff 85       	ldd	r31, Y+15	; 0x0f
    3ae8:	6f 0e       	add	r6, r31
    3aea:	20 ed       	ldi	r18, 0xD0	; 208
    3aec:	62 0e       	add	r6, r18
    3aee:	67 fe       	sbrs	r6, 7
    3af0:	02 c0       	rjmp	.+4      	; 0x3af6 <vfprintf+0x9a>
    3af2:	5f e7       	ldi	r21, 0x7F	; 127
    3af4:	65 2e       	mov	r6, r21
    3af6:	c3 fc       	sbrc	r12, 3
    3af8:	42 c2       	rjmp	.+1156   	; 0x3f7e <vfprintf+0x522>
    3afa:	76 2c       	mov	r7, r6
    3afc:	40 c2       	rjmp	.+1152   	; 0x3f7e <vfprintf+0x522>
    3afe:	c3 fe       	sbrs	r12, 3
    3b00:	04 c0       	rjmp	.+8      	; 0x3b0a <vfprintf+0xae>
    3b02:	66 20       	and	r6, r6
    3b04:	11 f4       	brne	.+4      	; 0x3b0a <vfprintf+0xae>
    3b06:	41 e0       	ldi	r20, 0x01	; 1
    3b08:	64 2e       	mov	r6, r20
    3b0a:	ef 85       	ldd	r30, Y+15	; 0x0f
    3b0c:	8e 2f       	mov	r24, r30
    3b0e:	99 27       	eor	r25, r25
    3b10:	87 fd       	sbrc	r24, 7
    3b12:	90 95       	com	r25
    3b14:	88 36       	cpi	r24, 0x68	; 104
    3b16:	91 05       	cpc	r25, r1
    3b18:	8c f5       	brge	.+98     	; 0x3b7c <vfprintf+0x120>
    3b1a:	85 36       	cpi	r24, 0x65	; 101
    3b1c:	91 05       	cpc	r25, r1
    3b1e:	0c f0       	brlt	.+2      	; 0x3b22 <vfprintf+0xc6>
    3b20:	6e c0       	rjmp	.+220    	; 0x3bfe <vfprintf+0x1a2>
    3b22:	83 35       	cpi	r24, 0x53	; 83
    3b24:	91 05       	cpc	r25, r1
    3b26:	09 f4       	brne	.+2      	; 0x3b2a <vfprintf+0xce>
    3b28:	93 c0       	rjmp	.+294    	; 0x3c50 <vfprintf+0x1f4>
    3b2a:	84 35       	cpi	r24, 0x54	; 84
    3b2c:	91 05       	cpc	r25, r1
    3b2e:	cc f4       	brge	.+50     	; 0x3b62 <vfprintf+0x106>
    3b30:	8b 32       	cpi	r24, 0x2B	; 43
    3b32:	91 05       	cpc	r25, r1
    3b34:	09 f4       	brne	.+2      	; 0x3b38 <vfprintf+0xdc>
    3b36:	49 c0       	rjmp	.+146    	; 0x3bca <vfprintf+0x16e>
    3b38:	8c 32       	cpi	r24, 0x2C	; 44
    3b3a:	91 05       	cpc	r25, r1
    3b3c:	4c f4       	brge	.+18     	; 0x3b50 <vfprintf+0xf4>
    3b3e:	80 32       	cpi	r24, 0x20	; 32
    3b40:	91 05       	cpc	r25, r1
    3b42:	09 f4       	brne	.+2      	; 0x3b46 <vfprintf+0xea>
    3b44:	46 c0       	rjmp	.+140    	; 0x3bd2 <vfprintf+0x176>
    3b46:	83 32       	cpi	r24, 0x23	; 35
    3b48:	91 05       	cpc	r25, r1
    3b4a:	09 f4       	brne	.+2      	; 0x3b4e <vfprintf+0xf2>
    3b4c:	4a c0       	rjmp	.+148    	; 0x3be2 <vfprintf+0x186>
    3b4e:	fe c1       	rjmp	.+1020   	; 0x3f4c <vfprintf+0x4f0>
    3b50:	8d 32       	cpi	r24, 0x2D	; 45
    3b52:	91 05       	cpc	r25, r1
    3b54:	09 f4       	brne	.+2      	; 0x3b58 <vfprintf+0xfc>
    3b56:	40 c0       	rjmp	.+128    	; 0x3bd8 <vfprintf+0x17c>
    3b58:	8e 32       	cpi	r24, 0x2E	; 46
    3b5a:	91 05       	cpc	r25, r1
    3b5c:	09 f4       	brne	.+2      	; 0x3b60 <vfprintf+0x104>
    3b5e:	44 c0       	rjmp	.+136    	; 0x3be8 <vfprintf+0x18c>
    3b60:	f5 c1       	rjmp	.+1002   	; 0x3f4c <vfprintf+0x4f0>
    3b62:	83 36       	cpi	r24, 0x63	; 99
    3b64:	91 05       	cpc	r25, r1
    3b66:	09 f4       	brne	.+2      	; 0x3b6a <vfprintf+0x10e>
    3b68:	50 c0       	rjmp	.+160    	; 0x3c0a <vfprintf+0x1ae>
    3b6a:	84 36       	cpi	r24, 0x64	; 100
    3b6c:	91 05       	cpc	r25, r1
    3b6e:	0c f0       	brlt	.+2      	; 0x3b72 <vfprintf+0x116>
    3b70:	8a c0       	rjmp	.+276    	; 0x3c86 <vfprintf+0x22a>
    3b72:	88 35       	cpi	r24, 0x58	; 88
    3b74:	91 05       	cpc	r25, r1
    3b76:	09 f4       	brne	.+2      	; 0x3b7a <vfprintf+0x11e>
    3b78:	bc c0       	rjmp	.+376    	; 0x3cf2 <vfprintf+0x296>
    3b7a:	e8 c1       	rjmp	.+976    	; 0x3f4c <vfprintf+0x4f0>
    3b7c:	80 37       	cpi	r24, 0x70	; 112
    3b7e:	91 05       	cpc	r25, r1
    3b80:	09 f4       	brne	.+2      	; 0x3b84 <vfprintf+0x128>
    3b82:	b1 c0       	rjmp	.+354    	; 0x3ce6 <vfprintf+0x28a>
    3b84:	81 37       	cpi	r24, 0x71	; 113
    3b86:	91 05       	cpc	r25, r1
    3b88:	84 f4       	brge	.+32     	; 0x3baa <vfprintf+0x14e>
    3b8a:	8c 36       	cpi	r24, 0x6C	; 108
    3b8c:	91 05       	cpc	r25, r1
    3b8e:	91 f1       	breq	.+100    	; 0x3bf4 <vfprintf+0x198>
    3b90:	8d 36       	cpi	r24, 0x6D	; 109
    3b92:	91 05       	cpc	r25, r1
    3b94:	2c f4       	brge	.+10     	; 0x3ba0 <vfprintf+0x144>
    3b96:	89 36       	cpi	r24, 0x69	; 105
    3b98:	91 05       	cpc	r25, r1
    3b9a:	09 f4       	brne	.+2      	; 0x3b9e <vfprintf+0x142>
    3b9c:	74 c0       	rjmp	.+232    	; 0x3c86 <vfprintf+0x22a>
    3b9e:	d6 c1       	rjmp	.+940    	; 0x3f4c <vfprintf+0x4f0>
    3ba0:	8f 36       	cpi	r24, 0x6F	; 111
    3ba2:	91 05       	cpc	r25, r1
    3ba4:	09 f4       	brne	.+2      	; 0x3ba8 <vfprintf+0x14c>
    3ba6:	9c c0       	rjmp	.+312    	; 0x3ce0 <vfprintf+0x284>
    3ba8:	d1 c1       	rjmp	.+930    	; 0x3f4c <vfprintf+0x4f0>
    3baa:	85 37       	cpi	r24, 0x75	; 117
    3bac:	91 05       	cpc	r25, r1
    3bae:	09 f4       	brne	.+2      	; 0x3bb2 <vfprintf+0x156>
    3bb0:	a2 c0       	rjmp	.+324    	; 0x3cf6 <vfprintf+0x29a>
    3bb2:	86 37       	cpi	r24, 0x76	; 118
    3bb4:	91 05       	cpc	r25, r1
    3bb6:	24 f4       	brge	.+8      	; 0x3bc0 <vfprintf+0x164>
    3bb8:	83 37       	cpi	r24, 0x73	; 115
    3bba:	91 05       	cpc	r25, r1
    3bbc:	71 f1       	breq	.+92     	; 0x3c1a <vfprintf+0x1be>
    3bbe:	c6 c1       	rjmp	.+908    	; 0x3f4c <vfprintf+0x4f0>
    3bc0:	88 37       	cpi	r24, 0x78	; 120
    3bc2:	91 05       	cpc	r25, r1
    3bc4:	09 f4       	brne	.+2      	; 0x3bc8 <vfprintf+0x16c>
    3bc6:	95 c0       	rjmp	.+298    	; 0x3cf2 <vfprintf+0x296>
    3bc8:	c1 c1       	rjmp	.+898    	; 0x3f4c <vfprintf+0x4f0>
    3bca:	80 e1       	ldi	r24, 0x10	; 16
    3bcc:	90 e0       	ldi	r25, 0x00	; 0
    3bce:	c8 2a       	or	r12, r24
    3bd0:	d9 2a       	or	r13, r25
    3bd2:	e0 e2       	ldi	r30, 0x20	; 32
    3bd4:	f0 e0       	ldi	r31, 0x00	; 0
    3bd6:	10 c0       	rjmp	.+32     	; 0x3bf8 <vfprintf+0x19c>
    3bd8:	80 e8       	ldi	r24, 0x80	; 128
    3bda:	90 e0       	ldi	r25, 0x00	; 0
    3bdc:	c8 2a       	or	r12, r24
    3bde:	d9 2a       	or	r13, r25
    3be0:	ce c1       	rjmp	.+924    	; 0x3f7e <vfprintf+0x522>
    3be2:	e0 e4       	ldi	r30, 0x40	; 64
    3be4:	f0 e0       	ldi	r31, 0x00	; 0
    3be6:	08 c0       	rjmp	.+16     	; 0x3bf8 <vfprintf+0x19c>
    3be8:	88 e0       	ldi	r24, 0x08	; 8
    3bea:	90 e0       	ldi	r25, 0x00	; 0
    3bec:	c8 2a       	or	r12, r24
    3bee:	d9 2a       	or	r13, r25
    3bf0:	66 24       	eor	r6, r6
    3bf2:	c5 c1       	rjmp	.+906    	; 0x3f7e <vfprintf+0x522>
    3bf4:	e4 e0       	ldi	r30, 0x04	; 4
    3bf6:	f0 e0       	ldi	r31, 0x00	; 0
    3bf8:	ce 2a       	or	r12, r30
    3bfa:	df 2a       	or	r13, r31
    3bfc:	c0 c1       	rjmp	.+896    	; 0x3f7e <vfprintf+0x522>
    3bfe:	3f e3       	ldi	r19, 0x3F	; 63
    3c00:	e3 2e       	mov	r14, r19
    3c02:	7a 94       	dec	r7
    3c04:	f3 e6       	ldi	r31, 0x63	; 99
    3c06:	ff 87       	std	Y+15, r31	; 0x0f
    3c08:	3c c1       	rjmp	.+632    	; 0x3e82 <vfprintf+0x426>
    3c0a:	f2 01       	movw	r30, r4
    3c0c:	82 e0       	ldi	r24, 0x02	; 2
    3c0e:	90 e0       	ldi	r25, 0x00	; 0
    3c10:	48 0e       	add	r4, r24
    3c12:	59 1e       	adc	r5, r25
    3c14:	e0 80       	ld	r14, Z
    3c16:	7a 94       	dec	r7
    3c18:	34 c1       	rjmp	.+616    	; 0x3e82 <vfprintf+0x426>
    3c1a:	f2 01       	movw	r30, r4
    3c1c:	82 e0       	ldi	r24, 0x02	; 2
    3c1e:	90 e0       	ldi	r25, 0x00	; 0
    3c20:	48 0e       	add	r4, r24
    3c22:	59 1e       	adc	r5, r25
    3c24:	a0 81       	ld	r26, Z
    3c26:	b1 81       	ldd	r27, Z+1	; 0x01
    3c28:	7d 01       	movw	r14, r26
    3c2a:	c3 fe       	sbrs	r12, 3
    3c2c:	09 c0       	rjmp	.+18     	; 0x3c40 <vfprintf+0x1e4>
    3c2e:	86 2d       	mov	r24, r6
    3c30:	99 27       	eor	r25, r25
    3c32:	87 fd       	sbrc	r24, 7
    3c34:	90 95       	com	r25
    3c36:	bc 01       	movw	r22, r24
    3c38:	cd 01       	movw	r24, r26
    3c3a:	0e 94 ff 1f 	call	0x3ffe <strnlen>
    3c3e:	1f c0       	rjmp	.+62     	; 0x3c7e <vfprintf+0x222>
    3c40:	fd 01       	movw	r30, r26
    3c42:	01 90       	ld	r0, Z+
    3c44:	00 20       	and	r0, r0
    3c46:	e9 f7       	brne	.-6      	; 0x3c42 <vfprintf+0x1e6>
    3c48:	31 97       	sbiw	r30, 0x01	; 1
    3c4a:	ea 1b       	sub	r30, r26
    3c4c:	e8 8b       	std	Y+16, r30	; 0x10
    3c4e:	18 c0       	rjmp	.+48     	; 0x3c80 <vfprintf+0x224>
    3c50:	f2 01       	movw	r30, r4
    3c52:	82 e0       	ldi	r24, 0x02	; 2
    3c54:	90 e0       	ldi	r25, 0x00	; 0
    3c56:	48 0e       	add	r4, r24
    3c58:	59 1e       	adc	r5, r25
    3c5a:	01 90       	ld	r0, Z+
    3c5c:	f0 81       	ld	r31, Z
    3c5e:	e0 2d       	mov	r30, r0
    3c60:	7f 01       	movw	r14, r30
    3c62:	c3 fe       	sbrs	r12, 3
    3c64:	09 c0       	rjmp	.+18     	; 0x3c78 <vfprintf+0x21c>
    3c66:	86 2d       	mov	r24, r6
    3c68:	99 27       	eor	r25, r25
    3c6a:	87 fd       	sbrc	r24, 7
    3c6c:	90 95       	com	r25
    3c6e:	bc 01       	movw	r22, r24
    3c70:	cf 01       	movw	r24, r30
    3c72:	0e 94 f4 1f 	call	0x3fe8 <strnlen_P>
    3c76:	03 c0       	rjmp	.+6      	; 0x3c7e <vfprintf+0x222>
    3c78:	cf 01       	movw	r24, r30
    3c7a:	0e 94 eb 1f 	call	0x3fd6 <strlen_P>
    3c7e:	88 8b       	std	Y+16, r24	; 0x10
    3c80:	98 89       	ldd	r25, Y+16	; 0x10
    3c82:	79 1a       	sub	r7, r25
    3c84:	fe c0       	rjmp	.+508    	; 0x3e82 <vfprintf+0x426>
    3c86:	c2 fe       	sbrs	r12, 2
    3c88:	0a c0       	rjmp	.+20     	; 0x3c9e <vfprintf+0x242>
    3c8a:	f2 01       	movw	r30, r4
    3c8c:	84 e0       	ldi	r24, 0x04	; 4
    3c8e:	90 e0       	ldi	r25, 0x00	; 0
    3c90:	48 0e       	add	r4, r24
    3c92:	59 1e       	adc	r5, r25
    3c94:	20 81       	ld	r18, Z
    3c96:	31 81       	ldd	r19, Z+1	; 0x01
    3c98:	42 81       	ldd	r20, Z+2	; 0x02
    3c9a:	53 81       	ldd	r21, Z+3	; 0x03
    3c9c:	0c c0       	rjmp	.+24     	; 0x3cb6 <vfprintf+0x25a>
    3c9e:	f2 01       	movw	r30, r4
    3ca0:	82 e0       	ldi	r24, 0x02	; 2
    3ca2:	90 e0       	ldi	r25, 0x00	; 0
    3ca4:	48 0e       	add	r4, r24
    3ca6:	59 1e       	adc	r5, r25
    3ca8:	80 81       	ld	r24, Z
    3caa:	91 81       	ldd	r25, Z+1	; 0x01
    3cac:	9c 01       	movw	r18, r24
    3cae:	44 27       	eor	r20, r20
    3cb0:	37 fd       	sbrc	r19, 7
    3cb2:	40 95       	com	r20
    3cb4:	54 2f       	mov	r21, r20
    3cb6:	79 01       	movw	r14, r18
    3cb8:	8a 01       	movw	r16, r20
    3cba:	57 ff       	sbrs	r21, 7
    3cbc:	0c c0       	rjmp	.+24     	; 0x3cd6 <vfprintf+0x27a>
    3cbe:	e2 e0       	ldi	r30, 0x02	; 2
    3cc0:	f0 e0       	ldi	r31, 0x00	; 0
    3cc2:	ce 2a       	or	r12, r30
    3cc4:	df 2a       	or	r13, r31
    3cc6:	10 95       	com	r17
    3cc8:	00 95       	com	r16
    3cca:	f0 94       	com	r15
    3ccc:	e0 94       	com	r14
    3cce:	e1 1c       	adc	r14, r1
    3cd0:	f1 1c       	adc	r15, r1
    3cd2:	01 1d       	adc	r16, r1
    3cd4:	11 1d       	adc	r17, r1
    3cd6:	8f eb       	ldi	r24, 0xBF	; 191
    3cd8:	9f ef       	ldi	r25, 0xFF	; 255
    3cda:	c8 22       	and	r12, r24
    3cdc:	d9 22       	and	r13, r25
    3cde:	27 c0       	rjmp	.+78     	; 0x3d2e <vfprintf+0x2d2>
    3ce0:	98 e0       	ldi	r25, 0x08	; 8
    3ce2:	98 8b       	std	Y+16, r25	; 0x10
    3ce4:	08 c0       	rjmp	.+16     	; 0x3cf6 <vfprintf+0x29a>
    3ce6:	e0 e4       	ldi	r30, 0x40	; 64
    3ce8:	f0 e0       	ldi	r31, 0x00	; 0
    3cea:	ce 2a       	or	r12, r30
    3cec:	df 2a       	or	r13, r31
    3cee:	f8 e7       	ldi	r31, 0x78	; 120
    3cf0:	ff 87       	std	Y+15, r31	; 0x0f
    3cf2:	20 e1       	ldi	r18, 0x10	; 16
    3cf4:	28 8b       	std	Y+16, r18	; 0x10
    3cf6:	c2 fe       	sbrs	r12, 2
    3cf8:	0a c0       	rjmp	.+20     	; 0x3d0e <vfprintf+0x2b2>
    3cfa:	f2 01       	movw	r30, r4
    3cfc:	84 e0       	ldi	r24, 0x04	; 4
    3cfe:	90 e0       	ldi	r25, 0x00	; 0
    3d00:	48 0e       	add	r4, r24
    3d02:	59 1e       	adc	r5, r25
    3d04:	20 81       	ld	r18, Z
    3d06:	31 81       	ldd	r19, Z+1	; 0x01
    3d08:	42 81       	ldd	r20, Z+2	; 0x02
    3d0a:	53 81       	ldd	r21, Z+3	; 0x03
    3d0c:	0a c0       	rjmp	.+20     	; 0x3d22 <vfprintf+0x2c6>
    3d0e:	f2 01       	movw	r30, r4
    3d10:	82 e0       	ldi	r24, 0x02	; 2
    3d12:	90 e0       	ldi	r25, 0x00	; 0
    3d14:	48 0e       	add	r4, r24
    3d16:	59 1e       	adc	r5, r25
    3d18:	80 81       	ld	r24, Z
    3d1a:	91 81       	ldd	r25, Z+1	; 0x01
    3d1c:	9c 01       	movw	r18, r24
    3d1e:	44 27       	eor	r20, r20
    3d20:	55 27       	eor	r21, r21
    3d22:	79 01       	movw	r14, r18
    3d24:	8a 01       	movw	r16, r20
    3d26:	ef ec       	ldi	r30, 0xCF	; 207
    3d28:	ff ef       	ldi	r31, 0xFF	; 255
    3d2a:	ce 22       	and	r12, r30
    3d2c:	df 22       	and	r13, r31
    3d2e:	ce 01       	movw	r24, r28
    3d30:	01 96       	adiw	r24, 0x01	; 1
    3d32:	9a 8b       	std	Y+18, r25	; 0x12
    3d34:	89 8b       	std	Y+17, r24	; 0x11
    3d36:	98 89       	ldd	r25, Y+16	; 0x10
    3d38:	89 2e       	mov	r8, r25
    3d3a:	99 24       	eor	r9, r9
    3d3c:	aa 24       	eor	r10, r10
    3d3e:	bb 24       	eor	r11, r11
    3d40:	c8 01       	movw	r24, r16
    3d42:	b7 01       	movw	r22, r14
    3d44:	a5 01       	movw	r20, r10
    3d46:	94 01       	movw	r18, r8
    3d48:	0e 94 6a 20 	call	0x40d4 <__udivmodsi4>
    3d4c:	dc 01       	movw	r26, r24
    3d4e:	cb 01       	movw	r24, r22
    3d50:	e9 89       	ldd	r30, Y+17	; 0x11
    3d52:	fa 89       	ldd	r31, Y+18	; 0x12
    3d54:	80 83       	st	Z, r24
    3d56:	8a 30       	cpi	r24, 0x0A	; 10
    3d58:	24 f0       	brlt	.+8      	; 0x3d62 <vfprintf+0x306>
    3d5a:	ff 85       	ldd	r31, Y+15	; 0x0f
    3d5c:	8f 0f       	add	r24, r31
    3d5e:	81 52       	subi	r24, 0x21	; 33
    3d60:	01 c0       	rjmp	.+2      	; 0x3d64 <vfprintf+0x308>
    3d62:	80 5d       	subi	r24, 0xD0	; 208
    3d64:	e9 89       	ldd	r30, Y+17	; 0x11
    3d66:	fa 89       	ldd	r31, Y+18	; 0x12
    3d68:	81 93       	st	Z+, r24
    3d6a:	fa 8b       	std	Y+18, r31	; 0x12
    3d6c:	e9 8b       	std	Y+17, r30	; 0x11
    3d6e:	c8 01       	movw	r24, r16
    3d70:	b7 01       	movw	r22, r14
    3d72:	a5 01       	movw	r20, r10
    3d74:	94 01       	movw	r18, r8
    3d76:	0e 94 6a 20 	call	0x40d4 <__udivmodsi4>
    3d7a:	79 01       	movw	r14, r18
    3d7c:	8a 01       	movw	r16, r20
    3d7e:	21 15       	cp	r18, r1
    3d80:	31 05       	cpc	r19, r1
    3d82:	41 05       	cpc	r20, r1
    3d84:	51 05       	cpc	r21, r1
    3d86:	e1 f6       	brne	.-72     	; 0x3d40 <vfprintf+0x2e4>
    3d88:	e9 88       	ldd	r14, Y+17	; 0x11
    3d8a:	81 e0       	ldi	r24, 0x01	; 1
    3d8c:	90 e0       	ldi	r25, 0x00	; 0
    3d8e:	8c 0f       	add	r24, r28
    3d90:	9d 1f       	adc	r25, r29
    3d92:	e8 1a       	sub	r14, r24
    3d94:	c6 01       	movw	r24, r12
    3d96:	82 73       	andi	r24, 0x32	; 50
    3d98:	90 70       	andi	r25, 0x00	; 0
    3d9a:	89 2b       	or	r24, r25
    3d9c:	09 f0       	breq	.+2      	; 0x3da0 <vfprintf+0x344>
    3d9e:	7a 94       	dec	r7
    3da0:	c6 fe       	sbrs	r12, 6
    3da2:	0d c0       	rjmp	.+26     	; 0x3dbe <vfprintf+0x362>
    3da4:	87 2d       	mov	r24, r7
    3da6:	99 27       	eor	r25, r25
    3da8:	87 fd       	sbrc	r24, 7
    3daa:	90 95       	com	r25
    3dac:	e8 89       	ldd	r30, Y+16	; 0x10
    3dae:	e0 31       	cpi	r30, 0x10	; 16
    3db0:	21 f4       	brne	.+8      	; 0x3dba <vfprintf+0x35e>
    3db2:	2e ef       	ldi	r18, 0xFE	; 254
    3db4:	72 2e       	mov	r7, r18
    3db6:	78 0e       	add	r7, r24
    3db8:	02 c0       	rjmp	.+4      	; 0x3dbe <vfprintf+0x362>
    3dba:	78 2e       	mov	r7, r24
    3dbc:	7a 94       	dec	r7
    3dbe:	c3 fe       	sbrs	r12, 3
    3dc0:	0f c0       	rjmp	.+30     	; 0x3de0 <vfprintf+0x384>
    3dc2:	26 2d       	mov	r18, r6
    3dc4:	33 27       	eor	r19, r19
    3dc6:	27 fd       	sbrc	r18, 7
    3dc8:	30 95       	com	r19
    3dca:	8e 2d       	mov	r24, r14
    3dcc:	99 27       	eor	r25, r25
    3dce:	82 17       	cp	r24, r18
    3dd0:	93 07       	cpc	r25, r19
    3dd2:	2c f0       	brlt	.+10     	; 0x3dde <vfprintf+0x382>
    3dd4:	87 ef       	ldi	r24, 0xF7	; 247
    3dd6:	9f ef       	ldi	r25, 0xFF	; 255
    3dd8:	c8 22       	and	r12, r24
    3dda:	d9 22       	and	r13, r25
    3ddc:	01 c0       	rjmp	.+2      	; 0x3de0 <vfprintf+0x384>
    3dde:	6e 18       	sub	r6, r14
    3de0:	c3 fe       	sbrs	r12, 3
    3de2:	02 c0       	rjmp	.+4      	; 0x3de8 <vfprintf+0x38c>
    3de4:	76 18       	sub	r7, r6
    3de6:	01 c0       	rjmp	.+2      	; 0x3dea <vfprintf+0x38e>
    3de8:	7e 18       	sub	r7, r14
    3dea:	c6 01       	movw	r24, r12
    3dec:	80 78       	andi	r24, 0x80	; 128
    3dee:	91 70       	andi	r25, 0x01	; 1
    3df0:	89 2b       	or	r24, r25
    3df2:	51 f4       	brne	.+20     	; 0x3e08 <vfprintf+0x3ac>
    3df4:	87 2d       	mov	r24, r7
    3df6:	7a 94       	dec	r7
    3df8:	18 16       	cp	r1, r24
    3dfa:	34 f4       	brge	.+12     	; 0x3e08 <vfprintf+0x3ac>
    3dfc:	b1 01       	movw	r22, r2
    3dfe:	80 e2       	ldi	r24, 0x20	; 32
    3e00:	90 e0       	ldi	r25, 0x00	; 0
    3e02:	0e 94 0a 20 	call	0x4014 <fputc>
    3e06:	f6 cf       	rjmp	.-20     	; 0x3df4 <vfprintf+0x398>
    3e08:	c1 fe       	sbrs	r12, 1
    3e0a:	04 c0       	rjmp	.+8      	; 0x3e14 <vfprintf+0x3b8>
    3e0c:	b1 01       	movw	r22, r2
    3e0e:	8d e2       	ldi	r24, 0x2D	; 45
    3e10:	90 e0       	ldi	r25, 0x00	; 0
    3e12:	0b c0       	rjmp	.+22     	; 0x3e2a <vfprintf+0x3ce>
    3e14:	c4 fe       	sbrs	r12, 4
    3e16:	04 c0       	rjmp	.+8      	; 0x3e20 <vfprintf+0x3c4>
    3e18:	b1 01       	movw	r22, r2
    3e1a:	8b e2       	ldi	r24, 0x2B	; 43
    3e1c:	90 e0       	ldi	r25, 0x00	; 0
    3e1e:	05 c0       	rjmp	.+10     	; 0x3e2a <vfprintf+0x3ce>
    3e20:	c5 fe       	sbrs	r12, 5
    3e22:	05 c0       	rjmp	.+10     	; 0x3e2e <vfprintf+0x3d2>
    3e24:	b1 01       	movw	r22, r2
    3e26:	80 e2       	ldi	r24, 0x20	; 32
    3e28:	90 e0       	ldi	r25, 0x00	; 0
    3e2a:	0e 94 0a 20 	call	0x4014 <fputc>
    3e2e:	c6 fe       	sbrs	r12, 6
    3e30:	10 c0       	rjmp	.+32     	; 0x3e52 <vfprintf+0x3f6>
    3e32:	b1 01       	movw	r22, r2
    3e34:	80 e3       	ldi	r24, 0x30	; 48
    3e36:	90 e0       	ldi	r25, 0x00	; 0
    3e38:	0e 94 0a 20 	call	0x4014 <fputc>
    3e3c:	98 89       	ldd	r25, Y+16	; 0x10
    3e3e:	90 31       	cpi	r25, 0x10	; 16
    3e40:	41 f4       	brne	.+16     	; 0x3e52 <vfprintf+0x3f6>
    3e42:	b1 01       	movw	r22, r2
    3e44:	ef 85       	ldd	r30, Y+15	; 0x0f
    3e46:	8e 2f       	mov	r24, r30
    3e48:	99 27       	eor	r25, r25
    3e4a:	87 fd       	sbrc	r24, 7
    3e4c:	90 95       	com	r25
    3e4e:	0e 94 0a 20 	call	0x4014 <fputc>
    3e52:	d0 fe       	sbrs	r13, 0
    3e54:	0a c0       	rjmp	.+20     	; 0x3e6a <vfprintf+0x40e>
    3e56:	87 2d       	mov	r24, r7
    3e58:	7a 94       	dec	r7
    3e5a:	18 16       	cp	r1, r24
    3e5c:	34 f4       	brge	.+12     	; 0x3e6a <vfprintf+0x40e>
    3e5e:	b1 01       	movw	r22, r2
    3e60:	80 e3       	ldi	r24, 0x30	; 48
    3e62:	90 e0       	ldi	r25, 0x00	; 0
    3e64:	0e 94 0a 20 	call	0x4014 <fputc>
    3e68:	f6 cf       	rjmp	.-20     	; 0x3e56 <vfprintf+0x3fa>
    3e6a:	c3 fe       	sbrs	r12, 3
    3e6c:	0a c0       	rjmp	.+20     	; 0x3e82 <vfprintf+0x426>
    3e6e:	86 2d       	mov	r24, r6
    3e70:	6a 94       	dec	r6
    3e72:	18 16       	cp	r1, r24
    3e74:	34 f4       	brge	.+12     	; 0x3e82 <vfprintf+0x426>
    3e76:	b1 01       	movw	r22, r2
    3e78:	80 e3       	ldi	r24, 0x30	; 48
    3e7a:	90 e0       	ldi	r25, 0x00	; 0
    3e7c:	0e 94 0a 20 	call	0x4014 <fputc>
    3e80:	f6 cf       	rjmp	.-20     	; 0x3e6e <vfprintf+0x412>
    3e82:	90 e8       	ldi	r25, 0x80	; 128
    3e84:	b9 2e       	mov	r11, r25
    3e86:	bc 20       	and	r11, r12
    3e88:	51 f4       	brne	.+20     	; 0x3e9e <vfprintf+0x442>
    3e8a:	87 2d       	mov	r24, r7
    3e8c:	7a 94       	dec	r7
    3e8e:	18 16       	cp	r1, r24
    3e90:	34 f4       	brge	.+12     	; 0x3e9e <vfprintf+0x442>
    3e92:	b1 01       	movw	r22, r2
    3e94:	80 e2       	ldi	r24, 0x20	; 32
    3e96:	90 e0       	ldi	r25, 0x00	; 0
    3e98:	0e 94 0a 20 	call	0x4014 <fputc>
    3e9c:	f6 cf       	rjmp	.-20     	; 0x3e8a <vfprintf+0x42e>
    3e9e:	ff 85       	ldd	r31, Y+15	; 0x0f
    3ea0:	f3 36       	cpi	r31, 0x63	; 99
    3ea2:	41 f4       	brne	.+16     	; 0x3eb4 <vfprintf+0x458>
    3ea4:	8e 2d       	mov	r24, r14
    3ea6:	b1 01       	movw	r22, r2
    3ea8:	99 27       	eor	r25, r25
    3eaa:	87 fd       	sbrc	r24, 7
    3eac:	90 95       	com	r25
    3eae:	0e 94 0a 20 	call	0x4014 <fputc>
    3eb2:	40 c0       	rjmp	.+128    	; 0x3f34 <vfprintf+0x4d8>
    3eb4:	2f 85       	ldd	r18, Y+15	; 0x0f
    3eb6:	23 37       	cpi	r18, 0x73	; 115
    3eb8:	b1 f4       	brne	.+44     	; 0x3ee6 <vfprintf+0x48a>
    3eba:	88 89       	ldd	r24, Y+16	; 0x10
    3ebc:	81 50       	subi	r24, 0x01	; 1
    3ebe:	88 8b       	std	Y+16, r24	; 0x10
    3ec0:	8f 3f       	cpi	r24, 0xFF	; 255
    3ec2:	c1 f1       	breq	.+112    	; 0x3f34 <vfprintf+0x4d8>
    3ec4:	f7 01       	movw	r30, r14
    3ec6:	80 81       	ld	r24, Z
    3ec8:	08 94       	sec
    3eca:	e1 1c       	adc	r14, r1
    3ecc:	f1 1c       	adc	r15, r1
    3ece:	b1 01       	movw	r22, r2
    3ed0:	99 27       	eor	r25, r25
    3ed2:	87 fd       	sbrc	r24, 7
    3ed4:	90 95       	com	r25
    3ed6:	0e 94 0a 20 	call	0x4014 <fputc>
    3eda:	98 89       	ldd	r25, Y+16	; 0x10
    3edc:	91 50       	subi	r25, 0x01	; 1
    3ede:	98 8b       	std	Y+16, r25	; 0x10
    3ee0:	9f 3f       	cpi	r25, 0xFF	; 255
    3ee2:	81 f7       	brne	.-32     	; 0x3ec4 <vfprintf+0x468>
    3ee4:	27 c0       	rjmp	.+78     	; 0x3f34 <vfprintf+0x4d8>
    3ee6:	ef 85       	ldd	r30, Y+15	; 0x0f
    3ee8:	e3 35       	cpi	r30, 0x53	; 83
    3eea:	79 f4       	brne	.+30     	; 0x3f0a <vfprintf+0x4ae>
    3eec:	f8 89       	ldd	r31, Y+16	; 0x10
    3eee:	f1 50       	subi	r31, 0x01	; 1
    3ef0:	f8 8b       	std	Y+16, r31	; 0x10
    3ef2:	ff 3f       	cpi	r31, 0xFF	; 255
    3ef4:	f9 f0       	breq	.+62     	; 0x3f34 <vfprintf+0x4d8>
    3ef6:	f7 01       	movw	r30, r14
    3ef8:	84 91       	lpm	r24, Z
    3efa:	b1 01       	movw	r22, r2
    3efc:	99 27       	eor	r25, r25
    3efe:	0e 94 0a 20 	call	0x4014 <fputc>
    3f02:	08 94       	sec
    3f04:	e1 1c       	adc	r14, r1
    3f06:	f1 1c       	adc	r15, r1
    3f08:	f1 cf       	rjmp	.-30     	; 0x3eec <vfprintf+0x490>
    3f0a:	6e 01       	movw	r12, r28
    3f0c:	08 94       	sec
    3f0e:	c1 1c       	adc	r12, r1
    3f10:	d1 1c       	adc	r13, r1
    3f12:	89 89       	ldd	r24, Y+17	; 0x11
    3f14:	9a 89       	ldd	r25, Y+18	; 0x12
    3f16:	8c 15       	cp	r24, r12
    3f18:	9d 05       	cpc	r25, r13
    3f1a:	61 f0       	breq	.+24     	; 0x3f34 <vfprintf+0x4d8>
    3f1c:	e9 89       	ldd	r30, Y+17	; 0x11
    3f1e:	fa 89       	ldd	r31, Y+18	; 0x12
    3f20:	82 91       	ld	r24, -Z
    3f22:	fa 8b       	std	Y+18, r31	; 0x12
    3f24:	e9 8b       	std	Y+17, r30	; 0x11
    3f26:	b1 01       	movw	r22, r2
    3f28:	99 27       	eor	r25, r25
    3f2a:	87 fd       	sbrc	r24, 7
    3f2c:	90 95       	com	r25
    3f2e:	0e 94 0a 20 	call	0x4014 <fputc>
    3f32:	ef cf       	rjmp	.-34     	; 0x3f12 <vfprintf+0x4b6>
    3f34:	bb 20       	and	r11, r11
    3f36:	69 f0       	breq	.+26     	; 0x3f52 <vfprintf+0x4f6>
    3f38:	87 2d       	mov	r24, r7
    3f3a:	7a 94       	dec	r7
    3f3c:	18 16       	cp	r1, r24
    3f3e:	4c f4       	brge	.+18     	; 0x3f52 <vfprintf+0x4f6>
    3f40:	b1 01       	movw	r22, r2
    3f42:	80 e2       	ldi	r24, 0x20	; 32
    3f44:	90 e0       	ldi	r25, 0x00	; 0
    3f46:	0e 94 0a 20 	call	0x4014 <fputc>
    3f4a:	f6 cf       	rjmp	.-20     	; 0x3f38 <vfprintf+0x4dc>
    3f4c:	b1 01       	movw	r22, r2
    3f4e:	0e 94 0a 20 	call	0x4014 <fputc>
    3f52:	cc 24       	eor	r12, r12
    3f54:	dd 24       	eor	r13, r13
    3f56:	13 c0       	rjmp	.+38     	; 0x3f7e <vfprintf+0x522>
    3f58:	9f 85       	ldd	r25, Y+15	; 0x0f
    3f5a:	95 32       	cpi	r25, 0x25	; 37
    3f5c:	41 f4       	brne	.+16     	; 0x3f6e <vfprintf+0x512>
    3f5e:	81 e0       	ldi	r24, 0x01	; 1
    3f60:	c8 2e       	mov	r12, r24
    3f62:	d1 2c       	mov	r13, r1
    3f64:	66 24       	eor	r6, r6
    3f66:	76 2c       	mov	r7, r6
    3f68:	ea e0       	ldi	r30, 0x0A	; 10
    3f6a:	e8 8b       	std	Y+16, r30	; 0x10
    3f6c:	08 c0       	rjmp	.+16     	; 0x3f7e <vfprintf+0x522>
    3f6e:	b1 01       	movw	r22, r2
    3f70:	ff 85       	ldd	r31, Y+15	; 0x0f
    3f72:	8f 2f       	mov	r24, r31
    3f74:	99 27       	eor	r25, r25
    3f76:	87 fd       	sbrc	r24, 7
    3f78:	90 95       	com	r25
    3f7a:	0e 94 0a 20 	call	0x4014 <fputc>
    3f7e:	f1 01       	movw	r30, r2
    3f80:	83 81       	ldd	r24, Z+3	; 0x03
    3f82:	83 ff       	sbrs	r24, 3
    3f84:	04 c0       	rjmp	.+8      	; 0x3f8e <vfprintf+0x532>
    3f86:	ed 85       	ldd	r30, Y+13	; 0x0d
    3f88:	fe 85       	ldd	r31, Y+14	; 0x0e
    3f8a:	f4 91       	lpm	r31, Z
    3f8c:	03 c0       	rjmp	.+6      	; 0x3f94 <vfprintf+0x538>
    3f8e:	ed 85       	ldd	r30, Y+13	; 0x0d
    3f90:	fe 85       	ldd	r31, Y+14	; 0x0e
    3f92:	f0 81       	ld	r31, Z
    3f94:	ff 87       	std	Y+15, r31	; 0x0f
    3f96:	2f 85       	ldd	r18, Y+15	; 0x0f
    3f98:	22 23       	and	r18, r18
    3f9a:	09 f0       	breq	.+2      	; 0x3f9e <vfprintf+0x542>
    3f9c:	8b cd       	rjmp	.-1258   	; 0x3ab4 <vfprintf+0x58>
    3f9e:	f1 01       	movw	r30, r2
    3fa0:	86 81       	ldd	r24, Z+6	; 0x06
    3fa2:	97 81       	ldd	r25, Z+7	; 0x07
    3fa4:	62 96       	adiw	r28, 0x12	; 18
    3fa6:	0f b6       	in	r0, 0x3f	; 63
    3fa8:	f8 94       	cli
    3faa:	de bf       	out	0x3e, r29	; 62
    3fac:	0f be       	out	0x3f, r0	; 63
    3fae:	cd bf       	out	0x3d, r28	; 61
    3fb0:	df 91       	pop	r29
    3fb2:	cf 91       	pop	r28
    3fb4:	1f 91       	pop	r17
    3fb6:	0f 91       	pop	r16
    3fb8:	ff 90       	pop	r15
    3fba:	ef 90       	pop	r14
    3fbc:	df 90       	pop	r13
    3fbe:	cf 90       	pop	r12
    3fc0:	bf 90       	pop	r11
    3fc2:	af 90       	pop	r10
    3fc4:	9f 90       	pop	r9
    3fc6:	8f 90       	pop	r8
    3fc8:	7f 90       	pop	r7
    3fca:	6f 90       	pop	r6
    3fcc:	5f 90       	pop	r5
    3fce:	4f 90       	pop	r4
    3fd0:	3f 90       	pop	r3
    3fd2:	2f 90       	pop	r2
    3fd4:	08 95       	ret

00003fd6 <strlen_P>:
    3fd6:	fc 01       	movw	r30, r24
    3fd8:	05 90       	lpm	r0, Z+
    3fda:	00 20       	and	r0, r0
    3fdc:	e9 f7       	brne	.-6      	; 0x3fd8 <strlen_P+0x2>
    3fde:	80 95       	com	r24
    3fe0:	90 95       	com	r25
    3fe2:	8e 0f       	add	r24, r30
    3fe4:	9f 1f       	adc	r25, r31
    3fe6:	08 95       	ret

00003fe8 <strnlen_P>:
    3fe8:	fc 01       	movw	r30, r24
    3fea:	05 90       	lpm	r0, Z+
    3fec:	61 50       	subi	r22, 0x01	; 1
    3fee:	70 40       	sbci	r23, 0x00	; 0
    3ff0:	01 10       	cpse	r0, r1
    3ff2:	d8 f7       	brcc	.-10     	; 0x3fea <strnlen_P+0x2>
    3ff4:	80 95       	com	r24
    3ff6:	90 95       	com	r25
    3ff8:	8e 0f       	add	r24, r30
    3ffa:	9f 1f       	adc	r25, r31
    3ffc:	08 95       	ret

00003ffe <strnlen>:
    3ffe:	fc 01       	movw	r30, r24
    4000:	61 50       	subi	r22, 0x01	; 1
    4002:	70 40       	sbci	r23, 0x00	; 0
    4004:	01 90       	ld	r0, Z+
    4006:	01 10       	cpse	r0, r1
    4008:	d8 f7       	brcc	.-10     	; 0x4000 <strnlen+0x2>
    400a:	80 95       	com	r24
    400c:	90 95       	com	r25
    400e:	8e 0f       	add	r24, r30
    4010:	9f 1f       	adc	r25, r31
    4012:	08 95       	ret

00004014 <fputc>:
    4014:	0f 93       	push	r16
    4016:	1f 93       	push	r17
    4018:	cf 93       	push	r28
    401a:	df 93       	push	r29
    401c:	8c 01       	movw	r16, r24
    401e:	eb 01       	movw	r28, r22
    4020:	8b 81       	ldd	r24, Y+3	; 0x03
    4022:	99 27       	eor	r25, r25
    4024:	81 ff       	sbrs	r24, 1
    4026:	1c c0       	rjmp	.+56     	; 0x4060 <fputc+0x4c>
    4028:	82 ff       	sbrs	r24, 2
    402a:	0d c0       	rjmp	.+26     	; 0x4046 <fputc+0x32>
    402c:	2e 81       	ldd	r18, Y+6	; 0x06
    402e:	3f 81       	ldd	r19, Y+7	; 0x07
    4030:	8c 81       	ldd	r24, Y+4	; 0x04
    4032:	9d 81       	ldd	r25, Y+5	; 0x05
    4034:	28 17       	cp	r18, r24
    4036:	39 07       	cpc	r19, r25
    4038:	64 f4       	brge	.+24     	; 0x4052 <fputc+0x3e>
    403a:	e8 81       	ld	r30, Y
    403c:	f9 81       	ldd	r31, Y+1	; 0x01
    403e:	01 93       	st	Z+, r16
    4040:	f9 83       	std	Y+1, r31	; 0x01
    4042:	e8 83       	st	Y, r30
    4044:	06 c0       	rjmp	.+12     	; 0x4052 <fputc+0x3e>
    4046:	e8 85       	ldd	r30, Y+8	; 0x08
    4048:	f9 85       	ldd	r31, Y+9	; 0x09
    404a:	80 2f       	mov	r24, r16
    404c:	09 95       	icall
    404e:	89 2b       	or	r24, r25
    4050:	39 f4       	brne	.+14     	; 0x4060 <fputc+0x4c>
    4052:	8e 81       	ldd	r24, Y+6	; 0x06
    4054:	9f 81       	ldd	r25, Y+7	; 0x07
    4056:	01 96       	adiw	r24, 0x01	; 1
    4058:	9f 83       	std	Y+7, r25	; 0x07
    405a:	8e 83       	std	Y+6, r24	; 0x06
    405c:	c8 01       	movw	r24, r16
    405e:	02 c0       	rjmp	.+4      	; 0x4064 <fputc+0x50>
    4060:	8f ef       	ldi	r24, 0xFF	; 255
    4062:	9f ef       	ldi	r25, 0xFF	; 255
    4064:	df 91       	pop	r29
    4066:	cf 91       	pop	r28
    4068:	1f 91       	pop	r17
    406a:	0f 91       	pop	r16
    406c:	08 95       	ret

0000406e <__udivmodqi4>:
    406e:	99 1b       	sub	r25, r25
    4070:	79 e0       	ldi	r23, 0x09	; 9
    4072:	04 c0       	rjmp	.+8      	; 0x407c <__udivmodqi4_ep>

00004074 <__udivmodqi4_loop>:
    4074:	99 1f       	adc	r25, r25
    4076:	96 17       	cp	r25, r22
    4078:	08 f0       	brcs	.+2      	; 0x407c <__udivmodqi4_ep>
    407a:	96 1b       	sub	r25, r22

0000407c <__udivmodqi4_ep>:
    407c:	88 1f       	adc	r24, r24
    407e:	7a 95       	dec	r23
    4080:	c9 f7       	brne	.-14     	; 0x4074 <__udivmodqi4_loop>
    4082:	80 95       	com	r24
    4084:	08 95       	ret

00004086 <__udivmodhi4>:
    4086:	aa 1b       	sub	r26, r26
    4088:	bb 1b       	sub	r27, r27
    408a:	51 e1       	ldi	r21, 0x11	; 17
    408c:	07 c0       	rjmp	.+14     	; 0x409c <__udivmodhi4_ep>

0000408e <__udivmodhi4_loop>:
    408e:	aa 1f       	adc	r26, r26
    4090:	bb 1f       	adc	r27, r27
    4092:	a6 17       	cp	r26, r22
    4094:	b7 07       	cpc	r27, r23
    4096:	10 f0       	brcs	.+4      	; 0x409c <__udivmodhi4_ep>
    4098:	a6 1b       	sub	r26, r22
    409a:	b7 0b       	sbc	r27, r23

0000409c <__udivmodhi4_ep>:
    409c:	88 1f       	adc	r24, r24
    409e:	99 1f       	adc	r25, r25
    40a0:	5a 95       	dec	r21
    40a2:	a9 f7       	brne	.-22     	; 0x408e <__udivmodhi4_loop>
    40a4:	80 95       	com	r24
    40a6:	90 95       	com	r25
    40a8:	bc 01       	movw	r22, r24
    40aa:	cd 01       	movw	r24, r26
    40ac:	08 95       	ret

000040ae <__divmodhi4>:
    40ae:	97 fb       	bst	r25, 7
    40b0:	09 2e       	mov	r0, r25
    40b2:	07 26       	eor	r0, r23
    40b4:	0a d0       	rcall	.+20     	; 0x40ca <__divmodhi4_neg1>
    40b6:	77 fd       	sbrc	r23, 7
    40b8:	04 d0       	rcall	.+8      	; 0x40c2 <__divmodhi4_neg2>
    40ba:	e5 df       	rcall	.-54     	; 0x4086 <__udivmodhi4>
    40bc:	06 d0       	rcall	.+12     	; 0x40ca <__divmodhi4_neg1>
    40be:	00 20       	and	r0, r0
    40c0:	1a f4       	brpl	.+6      	; 0x40c8 <__divmodhi4_exit>

000040c2 <__divmodhi4_neg2>:
    40c2:	70 95       	com	r23
    40c4:	61 95       	neg	r22
    40c6:	7f 4f       	sbci	r23, 0xFF	; 255

000040c8 <__divmodhi4_exit>:
    40c8:	08 95       	ret

000040ca <__divmodhi4_neg1>:
    40ca:	f6 f7       	brtc	.-4      	; 0x40c8 <__divmodhi4_exit>
    40cc:	90 95       	com	r25
    40ce:	81 95       	neg	r24
    40d0:	9f 4f       	sbci	r25, 0xFF	; 255
    40d2:	08 95       	ret

000040d4 <__udivmodsi4>:
    40d4:	a1 e2       	ldi	r26, 0x21	; 33
    40d6:	1a 2e       	mov	r1, r26
    40d8:	aa 1b       	sub	r26, r26
    40da:	bb 1b       	sub	r27, r27
    40dc:	fd 01       	movw	r30, r26
    40de:	0d c0       	rjmp	.+26     	; 0x40fa <__udivmodsi4_ep>

000040e0 <__udivmodsi4_loop>:
    40e0:	aa 1f       	adc	r26, r26
    40e2:	bb 1f       	adc	r27, r27
    40e4:	ee 1f       	adc	r30, r30
    40e6:	ff 1f       	adc	r31, r31
    40e8:	a2 17       	cp	r26, r18
    40ea:	b3 07       	cpc	r27, r19
    40ec:	e4 07       	cpc	r30, r20
    40ee:	f5 07       	cpc	r31, r21
    40f0:	20 f0       	brcs	.+8      	; 0x40fa <__udivmodsi4_ep>
    40f2:	a2 1b       	sub	r26, r18
    40f4:	b3 0b       	sbc	r27, r19
    40f6:	e4 0b       	sbc	r30, r20
    40f8:	f5 0b       	sbc	r31, r21

000040fa <__udivmodsi4_ep>:
    40fa:	66 1f       	adc	r22, r22
    40fc:	77 1f       	adc	r23, r23
    40fe:	88 1f       	adc	r24, r24
    4100:	99 1f       	adc	r25, r25
    4102:	1a 94       	dec	r1
    4104:	69 f7       	brne	.-38     	; 0x40e0 <__udivmodsi4_loop>
    4106:	60 95       	com	r22
    4108:	70 95       	com	r23
    410a:	80 95       	com	r24
    410c:	90 95       	com	r25
    410e:	9b 01       	movw	r18, r22
    4110:	ac 01       	movw	r20, r24
    4112:	bd 01       	movw	r22, r26
    4114:	cf 01       	movw	r24, r30
    4116:	08 95       	ret
